ARM GAS  C:\Users\guita\AppData\Local\Temp\ccRE0rrt.s 			page 1


   1              		.cpu cortex-m7
   2              		.eabi_attribute 28, 1
   3              		.eabi_attribute 20, 1
   4              		.eabi_attribute 21, 1
   5              		.eabi_attribute 23, 3
   6              		.eabi_attribute 24, 1
   7              		.eabi_attribute 25, 1
   8              		.eabi_attribute 26, 1
   9              		.eabi_attribute 30, 2
  10              		.eabi_attribute 34, 1
  11              		.eabi_attribute 18, 4
  12              		.file	"BassPedal.cpp"
  13              		.text
  14              	.Ltext0:
  15              		.cfi_sections	.debug_frame
  16              		.section	.text._ZN5daisy6SwitchD2Ev,"axG",%progbits,_ZN5daisy6SwitchD5Ev,comdat
  17              		.align	1
  18              		.p2align 2,,3
  19              		.weak	_ZN5daisy6SwitchD2Ev
  20              		.arch armv7e-m
  21              		.syntax unified
  22              		.thumb
  23              		.thumb_func
  24              		.fpu fpv5-d16
  26              	_ZN5daisy6SwitchD2Ev:
  27              	.LVL0:
  28              	.LFB1570:
  29              		.file 1 "../../DaisyExamples/libDaisy/src/hid/switch.h"
   1:../../DaisyExamples/libDaisy/src/hid/switch.h **** #pragma once
   2:../../DaisyExamples/libDaisy/src/hid/switch.h **** #ifndef DSY_SWITCH_H
   3:../../DaisyExamples/libDaisy/src/hid/switch.h **** #define DSY_SWITCH_H
   4:../../DaisyExamples/libDaisy/src/hid/switch.h **** #include "daisy_core.h"
   5:../../DaisyExamples/libDaisy/src/hid/switch.h **** #include "per/gpio.h"
   6:../../DaisyExamples/libDaisy/src/hid/switch.h **** #include "sys/system.h"
   7:../../DaisyExamples/libDaisy/src/hid/switch.h **** 
   8:../../DaisyExamples/libDaisy/src/hid/switch.h **** namespace daisy
   9:../../DaisyExamples/libDaisy/src/hid/switch.h **** {
  10:../../DaisyExamples/libDaisy/src/hid/switch.h **** /** 
  11:../../DaisyExamples/libDaisy/src/hid/switch.h ****     Generic Class for handling momentary/latching switches \n 
  12:../../DaisyExamples/libDaisy/src/hid/switch.h ****     Inspired/influenced by Mutable Instruments (pichenettes) Switch classes
  13:../../DaisyExamples/libDaisy/src/hid/switch.h ****     @author Stephen Hensley
  14:../../DaisyExamples/libDaisy/src/hid/switch.h ****     @date December 2019
  15:../../DaisyExamples/libDaisy/src/hid/switch.h ****     @ingroup controls
  16:../../DaisyExamples/libDaisy/src/hid/switch.h **** */
  17:../../DaisyExamples/libDaisy/src/hid/switch.h **** class Switch
  18:../../DaisyExamples/libDaisy/src/hid/switch.h **** {
  19:../../DaisyExamples/libDaisy/src/hid/switch.h ****   public:
  20:../../DaisyExamples/libDaisy/src/hid/switch.h ****     /** Specifies the expected behavior of the switch */
  21:../../DaisyExamples/libDaisy/src/hid/switch.h ****     enum Type
  22:../../DaisyExamples/libDaisy/src/hid/switch.h ****     {
  23:../../DaisyExamples/libDaisy/src/hid/switch.h ****         TYPE_TOGGLE,    /**< & */
  24:../../DaisyExamples/libDaisy/src/hid/switch.h ****         TYPE_MOMENTARY, /**< & */
  25:../../DaisyExamples/libDaisy/src/hid/switch.h ****     };
  26:../../DaisyExamples/libDaisy/src/hid/switch.h ****     /** Specifies whether the pressed is HIGH or LOW. */
  27:../../DaisyExamples/libDaisy/src/hid/switch.h ****     enum Polarity
  28:../../DaisyExamples/libDaisy/src/hid/switch.h ****     {
  29:../../DaisyExamples/libDaisy/src/hid/switch.h ****         POLARITY_NORMAL,   /**< & */
ARM GAS  C:\Users\guita\AppData\Local\Temp\ccRE0rrt.s 			page 2


  30:../../DaisyExamples/libDaisy/src/hid/switch.h ****         POLARITY_INVERTED, /**< & */
  31:../../DaisyExamples/libDaisy/src/hid/switch.h ****     };
  32:../../DaisyExamples/libDaisy/src/hid/switch.h **** 
  33:../../DaisyExamples/libDaisy/src/hid/switch.h ****     /** Specifies whether to use built-in Pull Up/Down resistors to hold button at a given state wh
  34:../../DaisyExamples/libDaisy/src/hid/switch.h ****     enum Pull
  35:../../DaisyExamples/libDaisy/src/hid/switch.h ****     {
  36:../../DaisyExamples/libDaisy/src/hid/switch.h ****         PULL_UP,   /**< & */
  37:../../DaisyExamples/libDaisy/src/hid/switch.h ****         PULL_DOWN, /**< & */
  38:../../DaisyExamples/libDaisy/src/hid/switch.h ****         PULL_NONE, /**< & */
  39:../../DaisyExamples/libDaisy/src/hid/switch.h ****     };
  40:../../DaisyExamples/libDaisy/src/hid/switch.h **** 
  41:../../DaisyExamples/libDaisy/src/hid/switch.h ****     Switch() {}
  42:../../DaisyExamples/libDaisy/src/hid/switch.h ****     ~Switch() {}
  30              		.loc 1 42 5 view -0
  31              		.cfi_startproc
  32              		@ args = 0, pretend = 0, frame = 0
  33              		@ frame_needed = 0, uses_anonymous_args = 0
  34              		@ link register save eliminated.
  35              		.loc 1 42 16 is_stmt 0 view .LVU1
  36 0000 7047     		bx	lr
  37              		.cfi_endproc
  38              	.LFE1570:
  40              		.weak	_ZN5daisy6SwitchD1Ev
  41              		.thumb_set _ZN5daisy6SwitchD1Ev,_ZN5daisy6SwitchD2Ev
  42 0002 00BF     		.section	.text._ZN5daisy3LedD2Ev,"axG",%progbits,_ZN5daisy3LedD5Ev,comdat
  43              		.align	1
  44              		.p2align 2,,3
  45              		.weak	_ZN5daisy3LedD2Ev
  46              		.syntax unified
  47              		.thumb
  48              		.thumb_func
  49              		.fpu fpv5-d16
  51              	_ZN5daisy3LedD2Ev:
  52              	.LVL1:
  53              	.LFB1772:
  54              		.file 2 "../../DaisyExamples/libDaisy/src/hid/led.h"
   1:../../DaisyExamples/libDaisy/src/hid/led.h **** 
   2:../../DaisyExamples/libDaisy/src/hid/led.h **** #pragma once
   3:../../DaisyExamples/libDaisy/src/hid/led.h **** #ifndef DSY_LED_H
   4:../../DaisyExamples/libDaisy/src/hid/led.h **** #define DSY_LED_H
   5:../../DaisyExamples/libDaisy/src/hid/led.h **** #include "daisy_core.h"
   6:../../DaisyExamples/libDaisy/src/hid/led.h **** #include "per/gpio.h"
   7:../../DaisyExamples/libDaisy/src/hid/led.h **** 
   8:../../DaisyExamples/libDaisy/src/hid/led.h **** /* TODO - Get this set up to work with the dev_leddriver stuff as well
   9:../../DaisyExamples/libDaisy/src/hid/led.h **** - Setup Hardware PWM for pins that have it
  10:../../DaisyExamples/libDaisy/src/hid/led.h **** */
  11:../../DaisyExamples/libDaisy/src/hid/led.h **** 
  12:../../DaisyExamples/libDaisy/src/hid/led.h **** namespace daisy
  13:../../DaisyExamples/libDaisy/src/hid/led.h **** {
  14:../../DaisyExamples/libDaisy/src/hid/led.h **** /**
  15:../../DaisyExamples/libDaisy/src/hid/led.h ****     @brief LED Class providing simple Software PWM ability, etc \n 
  16:../../DaisyExamples/libDaisy/src/hid/led.h ****     Eventually this will work with hardware PWM, and external LED Driver devices as well.
  17:../../DaisyExamples/libDaisy/src/hid/led.h ****     @author shensley
  18:../../DaisyExamples/libDaisy/src/hid/led.h ****     @date March 2020
  19:../../DaisyExamples/libDaisy/src/hid/led.h ****     @ingroup feedback
  20:../../DaisyExamples/libDaisy/src/hid/led.h **** */
  21:../../DaisyExamples/libDaisy/src/hid/led.h **** class Led
ARM GAS  C:\Users\guita\AppData\Local\Temp\ccRE0rrt.s 			page 3


  22:../../DaisyExamples/libDaisy/src/hid/led.h **** {
  23:../../DaisyExamples/libDaisy/src/hid/led.h ****   public:
  24:../../DaisyExamples/libDaisy/src/hid/led.h ****     Led() {}
  25:../../DaisyExamples/libDaisy/src/hid/led.h ****     ~Led() {}
  55              		.loc 2 25 5 is_stmt 1 view -0
  56              		.cfi_startproc
  57              		@ args = 0, pretend = 0, frame = 0
  58              		@ frame_needed = 0, uses_anonymous_args = 0
  59              		@ link register save eliminated.
  60              		.loc 2 25 13 is_stmt 0 view .LVU3
  61 0000 7047     		bx	lr
  62              		.cfi_endproc
  63              	.LFE1772:
  65              		.weak	_ZN5daisy3LedD1Ev
  66              		.thumb_set _ZN5daisy3LedD1Ev,_ZN5daisy3LedD2Ev
  67              		.section	.text._ZN5daisy6RgbLedD2Ev,"axG",%progbits,_ZN5daisy6RgbLedD5Ev,comdat
  68              		.align	1
  69              		.p2align 2,,3
  70              		.weak	_ZN5daisy6RgbLedD2Ev
  71              		.syntax unified
  72              		.thumb
  73              		.thumb_func
  74              		.fpu fpv5-d16
  76              	_ZN5daisy6RgbLedD2Ev:
  77              	.LVL2:
  78              	.LFB1788:
  79              		.file 3 "../../DaisyExamples/libDaisy/src/hid/rgb_led.h"
   1:../../DaisyExamples/libDaisy/src/hid/rgb_led.h **** #pragma once
   2:../../DaisyExamples/libDaisy/src/hid/rgb_led.h **** #ifndef DSY_RGB_LED_H
   3:../../DaisyExamples/libDaisy/src/hid/rgb_led.h **** #define DSY_RGB_LED_H
   4:../../DaisyExamples/libDaisy/src/hid/rgb_led.h **** #include "hid/led.h"
   5:../../DaisyExamples/libDaisy/src/hid/rgb_led.h **** #include "util/color.h"
   6:../../DaisyExamples/libDaisy/src/hid/rgb_led.h **** 
   7:../../DaisyExamples/libDaisy/src/hid/rgb_led.h **** namespace daisy
   8:../../DaisyExamples/libDaisy/src/hid/rgb_led.h **** {
   9:../../DaisyExamples/libDaisy/src/hid/rgb_led.h **** /** @addtogroup feedback
  10:../../DaisyExamples/libDaisy/src/hid/rgb_led.h ****     @{
  11:../../DaisyExamples/libDaisy/src/hid/rgb_led.h **** */
  12:../../DaisyExamples/libDaisy/src/hid/rgb_led.h **** 
  13:../../DaisyExamples/libDaisy/src/hid/rgb_led.h **** /** 3x LEDs configured as an RGB for ease of use. */
  14:../../DaisyExamples/libDaisy/src/hid/rgb_led.h **** class RgbLed
  15:../../DaisyExamples/libDaisy/src/hid/rgb_led.h **** {
  16:../../DaisyExamples/libDaisy/src/hid/rgb_led.h ****   public:
  17:../../DaisyExamples/libDaisy/src/hid/rgb_led.h ****     RgbLed() {}
  18:../../DaisyExamples/libDaisy/src/hid/rgb_led.h ****     ~RgbLed() {}
  80              		.loc 3 18 5 is_stmt 1 view -0
  81              		.cfi_startproc
  82              		@ args = 0, pretend = 0, frame = 0
  83              		@ frame_needed = 0, uses_anonymous_args = 0
  84              		@ link register save eliminated.
  85              	.LBB311:
  86              	.LBI311:
  87              		.loc 2 25 5 view .LVU5
  88              		.loc 2 25 5 is_stmt 0 view .LVU6
  89              	.LBE311:
  90              	.LBB312:
  91              	.LBI312:
ARM GAS  C:\Users\guita\AppData\Local\Temp\ccRE0rrt.s 			page 4


  92              		.loc 2 25 5 is_stmt 1 view .LVU7
  93              		.loc 2 25 5 is_stmt 0 view .LVU8
  94              	.LBE312:
  95              	.LBB313:
  96              	.LBI313:
  97              		.loc 2 25 5 is_stmt 1 view .LVU9
  98              		.loc 2 25 5 is_stmt 0 view .LVU10
  99              	.LBE313:
 100              		.loc 3 18 16 view .LVU11
 101 0000 7047     		bx	lr
 102              		.cfi_endproc
 103              	.LFE1788:
 105              		.weak	_ZN5daisy6RgbLedD1Ev
 106              		.thumb_set _ZN5daisy6RgbLedD1Ev,_ZN5daisy6RgbLedD2Ev
 107 0002 00BF     		.section	.text._ZN5daisy9DaisySeedD2Ev,"axG",%progbits,_ZN5daisy9DaisySeedD5Ev,comdat
 108              		.align	1
 109              		.p2align 2,,3
 110              		.weak	_ZN5daisy9DaisySeedD2Ev
 111              		.syntax unified
 112              		.thumb
 113              		.thumb_func
 114              		.fpu fpv5-d16
 116              	_ZN5daisy9DaisySeedD2Ev:
 117              	.LVL3:
 118              	.LFB2167:
 119              		.file 4 "../../DaisyExamples/libDaisy/src/daisy_seed.h"
   1:../../DaisyExamples/libDaisy/src/daisy_seed.h **** #pragma once
   2:../../DaisyExamples/libDaisy/src/daisy_seed.h **** #ifndef DSY_SEED_H
   3:../../DaisyExamples/libDaisy/src/daisy_seed.h **** #define DSY_SEED_H
   4:../../DaisyExamples/libDaisy/src/daisy_seed.h **** 
   5:../../DaisyExamples/libDaisy/src/daisy_seed.h **** #include "daisy.h"
   6:../../DaisyExamples/libDaisy/src/daisy_seed.h **** 
   7:../../DaisyExamples/libDaisy/src/daisy_seed.h **** //Uncomment this out if you're still using the rev2 hardware
   8:../../DaisyExamples/libDaisy/src/daisy_seed.h **** //#define SEED_REV2
   9:../../DaisyExamples/libDaisy/src/daisy_seed.h **** 
  10:../../DaisyExamples/libDaisy/src/daisy_seed.h **** namespace daisy
  11:../../DaisyExamples/libDaisy/src/daisy_seed.h **** {
  12:../../DaisyExamples/libDaisy/src/daisy_seed.h **** /**
  13:../../DaisyExamples/libDaisy/src/daisy_seed.h ****    @brief This is the higher-level interface for the Daisy board. \n 
  14:../../DaisyExamples/libDaisy/src/daisy_seed.h ****     All basic peripheral configuration/initialization is setup here. \n
  15:../../DaisyExamples/libDaisy/src/daisy_seed.h **** 
  16:../../DaisyExamples/libDaisy/src/daisy_seed.h ****    @ingroup boards
  17:../../DaisyExamples/libDaisy/src/daisy_seed.h **** */
  18:../../DaisyExamples/libDaisy/src/daisy_seed.h **** class DaisySeed
  19:../../DaisyExamples/libDaisy/src/daisy_seed.h **** {
  20:../../DaisyExamples/libDaisy/src/daisy_seed.h ****   public:
  21:../../DaisyExamples/libDaisy/src/daisy_seed.h ****     DaisySeed() {}
  22:../../DaisyExamples/libDaisy/src/daisy_seed.h ****     ~DaisySeed() {}
 120              		.loc 4 22 5 is_stmt 1 view -0
 121              		.cfi_startproc
 122              		@ args = 0, pretend = 0, frame = 0
 123              		@ frame_needed = 0, uses_anonymous_args = 0
 124              		@ link register save eliminated.
 125              	.LBB314:
 126              	.LBI314:
 127              		.file 5 "../../DaisyExamples/libDaisy/src/sys/system.h"
   1:../../DaisyExamples/libDaisy/src/sys/system.h **** #ifndef DSY_SYSTEM_H
ARM GAS  C:\Users\guita\AppData\Local\Temp\ccRE0rrt.s 			page 5


   2:../../DaisyExamples/libDaisy/src/sys/system.h **** #define DSY_SYSTEM_H
   3:../../DaisyExamples/libDaisy/src/sys/system.h **** 
   4:../../DaisyExamples/libDaisy/src/sys/system.h **** #ifndef UNIT_TEST // for unit tests, a dummy implementation is provided below
   5:../../DaisyExamples/libDaisy/src/sys/system.h **** 
   6:../../DaisyExamples/libDaisy/src/sys/system.h **** #include <cstdint>
   7:../../DaisyExamples/libDaisy/src/sys/system.h **** #include "per/tim.h"
   8:../../DaisyExamples/libDaisy/src/sys/system.h **** 
   9:../../DaisyExamples/libDaisy/src/sys/system.h **** namespace daisy
  10:../../DaisyExamples/libDaisy/src/sys/system.h **** {
  11:../../DaisyExamples/libDaisy/src/sys/system.h **** /** A handle for interacting with the Core System. 
  12:../../DaisyExamples/libDaisy/src/sys/system.h ****  ** This includes the Clock tree, MPU, global DMA initialization,
  13:../../DaisyExamples/libDaisy/src/sys/system.h ****  ** cache handling, and any other necessary global initiailzation
  14:../../DaisyExamples/libDaisy/src/sys/system.h ****  **
  15:../../DaisyExamples/libDaisy/src/sys/system.h ****  ** @author shensley
  16:../../DaisyExamples/libDaisy/src/sys/system.h ****  ** @ingroup system
  17:../../DaisyExamples/libDaisy/src/sys/system.h ****  */
  18:../../DaisyExamples/libDaisy/src/sys/system.h **** class System
  19:../../DaisyExamples/libDaisy/src/sys/system.h **** {
  20:../../DaisyExamples/libDaisy/src/sys/system.h ****   public:
  21:../../DaisyExamples/libDaisy/src/sys/system.h ****     /** Contains settings for initializing the System */
  22:../../DaisyExamples/libDaisy/src/sys/system.h ****     struct Config
  23:../../DaisyExamples/libDaisy/src/sys/system.h ****     {
  24:../../DaisyExamples/libDaisy/src/sys/system.h ****         /** Specifies the system clock frequency that feeds APB/AHB clocks, etc. */
  25:../../DaisyExamples/libDaisy/src/sys/system.h ****         enum class SysClkFreq
  26:../../DaisyExamples/libDaisy/src/sys/system.h ****         {
  27:../../DaisyExamples/libDaisy/src/sys/system.h ****             FREQ_400MHZ,
  28:../../DaisyExamples/libDaisy/src/sys/system.h ****             FREQ_480MHZ,
  29:../../DaisyExamples/libDaisy/src/sys/system.h ****         };
  30:../../DaisyExamples/libDaisy/src/sys/system.h **** 
  31:../../DaisyExamples/libDaisy/src/sys/system.h ****         /** Method to call on the struct to set to defaults
  32:../../DaisyExamples/libDaisy/src/sys/system.h ****          ** CPU Freq set to 400MHz
  33:../../DaisyExamples/libDaisy/src/sys/system.h ****          ** Cache Enabled 
  34:../../DaisyExamples/libDaisy/src/sys/system.h ****          ** */
  35:../../DaisyExamples/libDaisy/src/sys/system.h ****         void Defaults()
  36:../../DaisyExamples/libDaisy/src/sys/system.h ****         {
  37:../../DaisyExamples/libDaisy/src/sys/system.h ****             cpu_freq    = SysClkFreq::FREQ_400MHZ;
  38:../../DaisyExamples/libDaisy/src/sys/system.h ****             use_dcache  = true;
  39:../../DaisyExamples/libDaisy/src/sys/system.h ****             use_icache  = true;
  40:../../DaisyExamples/libDaisy/src/sys/system.h ****             skip_clocks = false;
  41:../../DaisyExamples/libDaisy/src/sys/system.h ****         }
  42:../../DaisyExamples/libDaisy/src/sys/system.h **** 
  43:../../DaisyExamples/libDaisy/src/sys/system.h ****         /** Method to call on the struct to set to boost mode:
  44:../../DaisyExamples/libDaisy/src/sys/system.h ****          ** CPU Freq set to 480MHz
  45:../../DaisyExamples/libDaisy/src/sys/system.h ****          ** Cache Enabled 
  46:../../DaisyExamples/libDaisy/src/sys/system.h ****          ** */
  47:../../DaisyExamples/libDaisy/src/sys/system.h ****         void Boost()
  48:../../DaisyExamples/libDaisy/src/sys/system.h ****         {
  49:../../DaisyExamples/libDaisy/src/sys/system.h ****             cpu_freq    = SysClkFreq::FREQ_480MHZ;
  50:../../DaisyExamples/libDaisy/src/sys/system.h ****             use_dcache  = true;
  51:../../DaisyExamples/libDaisy/src/sys/system.h ****             use_icache  = true;
  52:../../DaisyExamples/libDaisy/src/sys/system.h ****             skip_clocks = false;
  53:../../DaisyExamples/libDaisy/src/sys/system.h ****         }
  54:../../DaisyExamples/libDaisy/src/sys/system.h **** 
  55:../../DaisyExamples/libDaisy/src/sys/system.h ****         SysClkFreq cpu_freq;
  56:../../DaisyExamples/libDaisy/src/sys/system.h ****         bool       use_dcache;
  57:../../DaisyExamples/libDaisy/src/sys/system.h ****         bool       use_icache;
  58:../../DaisyExamples/libDaisy/src/sys/system.h ****         bool       skip_clocks;
ARM GAS  C:\Users\guita\AppData\Local\Temp\ccRE0rrt.s 			page 6


  59:../../DaisyExamples/libDaisy/src/sys/system.h ****     };
  60:../../DaisyExamples/libDaisy/src/sys/system.h **** 
  61:../../DaisyExamples/libDaisy/src/sys/system.h ****     /** Describes the different regions of memory available to the Daisy
  62:../../DaisyExamples/libDaisy/src/sys/system.h ****      * 
  63:../../DaisyExamples/libDaisy/src/sys/system.h ****      */
  64:../../DaisyExamples/libDaisy/src/sys/system.h ****     enum MemoryRegion
  65:../../DaisyExamples/libDaisy/src/sys/system.h ****     {
  66:../../DaisyExamples/libDaisy/src/sys/system.h ****         INTERNAL_FLASH = 0,
  67:../../DaisyExamples/libDaisy/src/sys/system.h ****         ITCMRAM,
  68:../../DaisyExamples/libDaisy/src/sys/system.h ****         DTCMRAM,
  69:../../DaisyExamples/libDaisy/src/sys/system.h ****         SRAM_D1,
  70:../../DaisyExamples/libDaisy/src/sys/system.h ****         SRAM_D2,
  71:../../DaisyExamples/libDaisy/src/sys/system.h ****         SRAM_D3,
  72:../../DaisyExamples/libDaisy/src/sys/system.h ****         SDRAM,
  73:../../DaisyExamples/libDaisy/src/sys/system.h ****         QSPI,
  74:../../DaisyExamples/libDaisy/src/sys/system.h ****         INVALID_ADDRESS,
  75:../../DaisyExamples/libDaisy/src/sys/system.h ****     };
  76:../../DaisyExamples/libDaisy/src/sys/system.h **** 
  77:../../DaisyExamples/libDaisy/src/sys/system.h ****     System() {}
  78:../../DaisyExamples/libDaisy/src/sys/system.h ****     ~System() {}
 128              		.loc 5 78 5 view .LVU13
 129              		.loc 5 78 5 is_stmt 0 view .LVU14
 130              	.LBE314:
 131              	.LBB315:
 132              	.LBI315:
 133              		.file 6 "../../DaisyExamples/libDaisy/src/hid/usb.h"
   1:../../DaisyExamples/libDaisy/src/hid/usb.h **** #pragma once
   2:../../DaisyExamples/libDaisy/src/hid/usb.h **** #ifndef DSY_HID_USB_H
   3:../../DaisyExamples/libDaisy/src/hid/usb.h **** #define DSY_HID_USB_H
   4:../../DaisyExamples/libDaisy/src/hid/usb.h **** #include <stdint.h>
   5:../../DaisyExamples/libDaisy/src/hid/usb.h **** #include <stdlib.h>
   6:../../DaisyExamples/libDaisy/src/hid/usb.h **** 
   7:../../DaisyExamples/libDaisy/src/hid/usb.h **** namespace daisy
   8:../../DaisyExamples/libDaisy/src/hid/usb.h **** /** @addtogroup human_interface
   9:../../DaisyExamples/libDaisy/src/hid/usb.h ****     @{
  10:../../DaisyExamples/libDaisy/src/hid/usb.h **** */
  11:../../DaisyExamples/libDaisy/src/hid/usb.h **** 
  12:../../DaisyExamples/libDaisy/src/hid/usb.h **** {
  13:../../DaisyExamples/libDaisy/src/hid/usb.h **** /** 
  14:../../DaisyExamples/libDaisy/src/hid/usb.h ****     @brief Interface for initializing and using the USB Peripherals on the daisy
  15:../../DaisyExamples/libDaisy/src/hid/usb.h ****     @author Stephen Hensley
  16:../../DaisyExamples/libDaisy/src/hid/usb.h ****     @date December 2019
  17:../../DaisyExamples/libDaisy/src/hid/usb.h **** */
  18:../../DaisyExamples/libDaisy/src/hid/usb.h **** class UsbHandle
  19:../../DaisyExamples/libDaisy/src/hid/usb.h **** {
  20:../../DaisyExamples/libDaisy/src/hid/usb.h ****   public:
  21:../../DaisyExamples/libDaisy/src/hid/usb.h ****     /** Return values for USBHandle Functions */
  22:../../DaisyExamples/libDaisy/src/hid/usb.h ****     enum class Result
  23:../../DaisyExamples/libDaisy/src/hid/usb.h ****     {
  24:../../DaisyExamples/libDaisy/src/hid/usb.h ****         OK,
  25:../../DaisyExamples/libDaisy/src/hid/usb.h ****         ERR,
  26:../../DaisyExamples/libDaisy/src/hid/usb.h ****     };
  27:../../DaisyExamples/libDaisy/src/hid/usb.h **** 
  28:../../DaisyExamples/libDaisy/src/hid/usb.h ****     /** Specified which of the two USB Peripherals to initialize. */
  29:../../DaisyExamples/libDaisy/src/hid/usb.h ****     enum UsbPeriph
  30:../../DaisyExamples/libDaisy/src/hid/usb.h ****     {
  31:../../DaisyExamples/libDaisy/src/hid/usb.h ****         FS_INTERNAL, /**< Internal pin */
ARM GAS  C:\Users\guita\AppData\Local\Temp\ccRE0rrt.s 			page 7


  32:../../DaisyExamples/libDaisy/src/hid/usb.h ****         FS_EXTERNAL, /**< FS External D+ pin is Pin 38 (GPIO32). FS External D- pin is Pin 37 (GPIO
  33:../../DaisyExamples/libDaisy/src/hid/usb.h ****         FS_BOTH,     /**< Both */
  34:../../DaisyExamples/libDaisy/src/hid/usb.h ****     };
  35:../../DaisyExamples/libDaisy/src/hid/usb.h **** 
  36:../../DaisyExamples/libDaisy/src/hid/usb.h **** 
  37:../../DaisyExamples/libDaisy/src/hid/usb.h ****     /** Function called upon reception of a buffer */
  38:../../DaisyExamples/libDaisy/src/hid/usb.h ****     typedef void (*ReceiveCallback)(uint8_t* buff, uint32_t* len);
  39:../../DaisyExamples/libDaisy/src/hid/usb.h **** 
  40:../../DaisyExamples/libDaisy/src/hid/usb.h ****     UsbHandle() {}
  41:../../DaisyExamples/libDaisy/src/hid/usb.h **** 
  42:../../DaisyExamples/libDaisy/src/hid/usb.h ****     ~UsbHandle() {}
 134              		.loc 6 42 5 is_stmt 1 view .LVU15
 135              		.loc 6 42 5 is_stmt 0 view .LVU16
 136              	.LBE315:
 137              	.LBB316:
 138              	.LBI316:
 139              		.file 7 "../../DaisyExamples/libDaisy/src/per/adc.h"
   1:../../DaisyExamples/libDaisy/src/per/adc.h **** #pragma once
   2:../../DaisyExamples/libDaisy/src/per/adc.h **** #ifndef DSY_ADC_H
   3:../../DaisyExamples/libDaisy/src/per/adc.h **** #define DSY_ADC_H /**< Macro */
   4:../../DaisyExamples/libDaisy/src/per/adc.h **** #include <stdint.h>
   5:../../DaisyExamples/libDaisy/src/per/adc.h **** #include <stdlib.h>
   6:../../DaisyExamples/libDaisy/src/per/adc.h **** #include "daisy_core.h"
   7:../../DaisyExamples/libDaisy/src/per/adc.h **** #include "per/gpio.h"
   8:../../DaisyExamples/libDaisy/src/per/adc.h **** 
   9:../../DaisyExamples/libDaisy/src/per/adc.h **** #define DSY_ADC_MAX_CHANNELS 16 /**< Maximum number of ADC channels */
  10:../../DaisyExamples/libDaisy/src/per/adc.h **** 
  11:../../DaisyExamples/libDaisy/src/per/adc.h **** namespace daisy
  12:../../DaisyExamples/libDaisy/src/per/adc.h **** {
  13:../../DaisyExamples/libDaisy/src/per/adc.h **** /** @addtogroup per_analog
  14:../../DaisyExamples/libDaisy/src/per/adc.h ****     @{
  15:../../DaisyExamples/libDaisy/src/per/adc.h **** */
  16:../../DaisyExamples/libDaisy/src/per/adc.h **** 
  17:../../DaisyExamples/libDaisy/src/per/adc.h **** /* While there may not be many configuration options here,
  18:../../DaisyExamples/libDaisy/src/per/adc.h **** using a struct like this allows us to add more configuration
  19:../../DaisyExamples/libDaisy/src/per/adc.h **** later without breaking existing functionality.
  20:../../DaisyExamples/libDaisy/src/per/adc.h **** */
  21:../../DaisyExamples/libDaisy/src/per/adc.h **** 
  22:../../DaisyExamples/libDaisy/src/per/adc.h **** /** @brief   Configuration Structure for an ADC Channel 
  23:../../DaisyExamples/libDaisy/src/per/adc.h ****  *  @details This can be used to configure a a single input, 
  24:../../DaisyExamples/libDaisy/src/per/adc.h ****  *           or a multiplexed input, allowing up to 8 inputs on 
  25:../../DaisyExamples/libDaisy/src/per/adc.h ****  *           one channel.
  26:../../DaisyExamples/libDaisy/src/per/adc.h ****  *  @note    Sharing data lines to multiple muxes _is_ possible, but
  27:../../DaisyExamples/libDaisy/src/per/adc.h ****  *           each channel sharing data lines must be set to the maximum
  28:../../DaisyExamples/libDaisy/src/per/adc.h ****  *           number of channels, even if some multiplexers have fewer
  29:../../DaisyExamples/libDaisy/src/per/adc.h ****  *           inputs connected.
  30:../../DaisyExamples/libDaisy/src/per/adc.h **** */
  31:../../DaisyExamples/libDaisy/src/per/adc.h **** struct AdcChannelConfig
  32:../../DaisyExamples/libDaisy/src/per/adc.h **** {
  33:../../DaisyExamples/libDaisy/src/per/adc.h ****     /** Which pin to use for multiplexing */
  34:../../DaisyExamples/libDaisy/src/per/adc.h ****     enum MuxPin
  35:../../DaisyExamples/libDaisy/src/per/adc.h ****     {
  36:../../DaisyExamples/libDaisy/src/per/adc.h ****         MUX_SEL_0,    /**< & */
  37:../../DaisyExamples/libDaisy/src/per/adc.h ****         MUX_SEL_1,    /**< & */
  38:../../DaisyExamples/libDaisy/src/per/adc.h ****         MUX_SEL_2,    /**< & */
  39:../../DaisyExamples/libDaisy/src/per/adc.h ****         MUX_SEL_LAST, /**< & */
  40:../../DaisyExamples/libDaisy/src/per/adc.h ****     };
ARM GAS  C:\Users\guita\AppData\Local\Temp\ccRE0rrt.s 			page 8


  41:../../DaisyExamples/libDaisy/src/per/adc.h **** 
  42:../../DaisyExamples/libDaisy/src/per/adc.h ****     /** Initializes a single ADC pin as an ADC. 
  43:../../DaisyExamples/libDaisy/src/per/adc.h ****     \param pin Pin to init.
  44:../../DaisyExamples/libDaisy/src/per/adc.h ****      */
  45:../../DaisyExamples/libDaisy/src/per/adc.h ****     void InitSingle(dsy_gpio_pin pin);
  46:../../DaisyExamples/libDaisy/src/per/adc.h **** 
  47:../../DaisyExamples/libDaisy/src/per/adc.h ****     /** 
  48:../../DaisyExamples/libDaisy/src/per/adc.h ****     Initializes a single ADC pin as a Multiplexed ADC.
  49:../../DaisyExamples/libDaisy/src/per/adc.h ****     Requires a CD405X Multiplexer connected to the pin.
  50:../../DaisyExamples/libDaisy/src/per/adc.h ****     You only need to supply the mux pins that are required,
  51:../../DaisyExamples/libDaisy/src/per/adc.h ****     e.g. a 4052 mux would only require mux_0 and mux_1.
  52:../../DaisyExamples/libDaisy/src/per/adc.h ****     Internal Callbacks handle the pin addressing.
  53:../../DaisyExamples/libDaisy/src/per/adc.h ****     \param mux_channels must be 1-8
  54:../../DaisyExamples/libDaisy/src/per/adc.h ****     \param mux_0 First mux pin
  55:../../DaisyExamples/libDaisy/src/per/adc.h ****     \param mux_1 Second mux pin
  56:../../DaisyExamples/libDaisy/src/per/adc.h ****     \param mux_2 Third mux pin
  57:../../DaisyExamples/libDaisy/src/per/adc.h ****     \param adc_pin &
  58:../../DaisyExamples/libDaisy/src/per/adc.h ****     */
  59:../../DaisyExamples/libDaisy/src/per/adc.h ****     void InitMux(dsy_gpio_pin adc_pin,
  60:../../DaisyExamples/libDaisy/src/per/adc.h ****                  size_t       mux_channels,
  61:../../DaisyExamples/libDaisy/src/per/adc.h ****                  dsy_gpio_pin mux_0,
  62:../../DaisyExamples/libDaisy/src/per/adc.h ****                  dsy_gpio_pin mux_1 = {DSY_GPIOX, 0},
  63:../../DaisyExamples/libDaisy/src/per/adc.h ****                  dsy_gpio_pin mux_2 = {DSY_GPIOX, 0});
  64:../../DaisyExamples/libDaisy/src/per/adc.h **** 
  65:../../DaisyExamples/libDaisy/src/per/adc.h ****     dsy_gpio pin_;                   /**< & */
  66:../../DaisyExamples/libDaisy/src/per/adc.h ****     dsy_gpio mux_pin_[MUX_SEL_LAST]; /**< & */
  67:../../DaisyExamples/libDaisy/src/per/adc.h ****     uint8_t  mux_channels_;          /**< & */
  68:../../DaisyExamples/libDaisy/src/per/adc.h **** };
  69:../../DaisyExamples/libDaisy/src/per/adc.h **** 
  70:../../DaisyExamples/libDaisy/src/per/adc.h **** /**
  71:../../DaisyExamples/libDaisy/src/per/adc.h ****    @brief Handler for analog to digital conversion
  72:../../DaisyExamples/libDaisy/src/per/adc.h **** */
  73:../../DaisyExamples/libDaisy/src/per/adc.h **** class AdcHandle
  74:../../DaisyExamples/libDaisy/src/per/adc.h **** {
  75:../../DaisyExamples/libDaisy/src/per/adc.h ****   public:
  76:../../DaisyExamples/libDaisy/src/per/adc.h ****     /** Supported oversampling amounts */
  77:../../DaisyExamples/libDaisy/src/per/adc.h ****     enum OverSampling
  78:../../DaisyExamples/libDaisy/src/per/adc.h ****     {
  79:../../DaisyExamples/libDaisy/src/per/adc.h ****         OVS_NONE, /**< & */
  80:../../DaisyExamples/libDaisy/src/per/adc.h ****         OVS_4,    /**< & */
  81:../../DaisyExamples/libDaisy/src/per/adc.h ****         OVS_8,    /**< & */
  82:../../DaisyExamples/libDaisy/src/per/adc.h ****         OVS_16,   /**< & */
  83:../../DaisyExamples/libDaisy/src/per/adc.h ****         OVS_32,   /**< & */
  84:../../DaisyExamples/libDaisy/src/per/adc.h ****         OVS_64,   /**< & */
  85:../../DaisyExamples/libDaisy/src/per/adc.h ****         OVS_128,  /**< & */
  86:../../DaisyExamples/libDaisy/src/per/adc.h ****         OVS_256,  /**< & */
  87:../../DaisyExamples/libDaisy/src/per/adc.h ****         OVS_512,  /**< & */
  88:../../DaisyExamples/libDaisy/src/per/adc.h ****         OVS_1024, /**< & */
  89:../../DaisyExamples/libDaisy/src/per/adc.h ****         OVS_LAST, /**< & */
  90:../../DaisyExamples/libDaisy/src/per/adc.h ****     };
  91:../../DaisyExamples/libDaisy/src/per/adc.h **** 
  92:../../DaisyExamples/libDaisy/src/per/adc.h ****     AdcHandle() {}
  93:../../DaisyExamples/libDaisy/src/per/adc.h ****     ~AdcHandle() {}
 140              		.loc 7 93 5 is_stmt 1 view .LVU17
 141              		.loc 7 93 5 is_stmt 0 view .LVU18
 142              	.LBE316:
 143              	.LBB317:
ARM GAS  C:\Users\guita\AppData\Local\Temp\ccRE0rrt.s 			page 9


 144              	.LBI317:
 145              		.file 8 "../../DaisyExamples/libDaisy/src/hid/audio.h"
   1:../../DaisyExamples/libDaisy/src/hid/audio.h **** #ifndef DSY_AUDIO_H
   2:../../DaisyExamples/libDaisy/src/hid/audio.h **** #define DSY_AUDIO_H /**< & */
   3:../../DaisyExamples/libDaisy/src/hid/audio.h **** 
   4:../../DaisyExamples/libDaisy/src/hid/audio.h **** #include "per/sai.h"
   5:../../DaisyExamples/libDaisy/src/hid/audio.h **** 
   6:../../DaisyExamples/libDaisy/src/hid/audio.h **** namespace daisy
   7:../../DaisyExamples/libDaisy/src/hid/audio.h **** {
   8:../../DaisyExamples/libDaisy/src/hid/audio.h **** /** @brief Audio Engine Handle
   9:../../DaisyExamples/libDaisy/src/hid/audio.h ****  *  @ingroup audio 
  10:../../DaisyExamples/libDaisy/src/hid/audio.h ****  *  @details This class allows for higher level access to an audio engine.
  11:../../DaisyExamples/libDaisy/src/hid/audio.h ****  *           If you're using a SOM like the DaisySeed or DaisyPatchSM (or any 
  12:../../DaisyExamples/libDaisy/src/hid/audio.h ****  *            board that includes one of those objects) then the intialization
  13:../../DaisyExamples/libDaisy/src/hid/audio.h ****  *            is already taken  care of.
  14:../../DaisyExamples/libDaisy/src/hid/audio.h ****  *           If you're setting up your own custom hardware, or need to make changes
  15:../../DaisyExamples/libDaisy/src/hid/audio.h ****  *           you will have to take the following steps:
  16:../../DaisyExamples/libDaisy/src/hid/audio.h ****  *             1. Create and Initialize an SaiHandle or two depending on your requirements
  17:../../DaisyExamples/libDaisy/src/hid/audio.h ****  *             2. Initialize the Audio Handle with the desired settings and the Initialized SaiHand
  18:../../DaisyExamples/libDaisy/src/hid/audio.h ****  *             3. If the connected codec requires special configuration or initialization, do so
  19:../../DaisyExamples/libDaisy/src/hid/audio.h ****  *             4. Write a callback method using either the AudioCallback or the InterleavingAudioCa
  20:../../DaisyExamples/libDaisy/src/hid/audio.h ****  *             5. Start the Audio using one of the StartAudio function
  21:../../DaisyExamples/libDaisy/src/hid/audio.h ****  */
  22:../../DaisyExamples/libDaisy/src/hid/audio.h **** class AudioHandle
  23:../../DaisyExamples/libDaisy/src/hid/audio.h **** {
  24:../../DaisyExamples/libDaisy/src/hid/audio.h ****   public:
  25:../../DaisyExamples/libDaisy/src/hid/audio.h ****     /** Manually configurable details about the Audio Engine */
  26:../../DaisyExamples/libDaisy/src/hid/audio.h ****     /** TODO: Figure out how to get samplerate in here. */
  27:../../DaisyExamples/libDaisy/src/hid/audio.h ****     struct Config
  28:../../DaisyExamples/libDaisy/src/hid/audio.h ****     {
  29:../../DaisyExamples/libDaisy/src/hid/audio.h ****         size_t                        blocksize;
  30:../../DaisyExamples/libDaisy/src/hid/audio.h ****         SaiHandle::Config::SampleRate samplerate;
  31:../../DaisyExamples/libDaisy/src/hid/audio.h ****         float                         postgain;
  32:../../DaisyExamples/libDaisy/src/hid/audio.h ****     };
  33:../../DaisyExamples/libDaisy/src/hid/audio.h **** 
  34:../../DaisyExamples/libDaisy/src/hid/audio.h ****     enum class Result
  35:../../DaisyExamples/libDaisy/src/hid/audio.h ****     {
  36:../../DaisyExamples/libDaisy/src/hid/audio.h ****         OK,
  37:../../DaisyExamples/libDaisy/src/hid/audio.h ****         ERR,
  38:../../DaisyExamples/libDaisy/src/hid/audio.h ****     };
  39:../../DaisyExamples/libDaisy/src/hid/audio.h **** 
  40:../../DaisyExamples/libDaisy/src/hid/audio.h ****     /** Non-Interleaving input buffer
  41:../../DaisyExamples/libDaisy/src/hid/audio.h ****      * Buffer arranged by float[chn][sample] 
  42:../../DaisyExamples/libDaisy/src/hid/audio.h ****      * const so that the user can't modify the input
  43:../../DaisyExamples/libDaisy/src/hid/audio.h ****      */
  44:../../DaisyExamples/libDaisy/src/hid/audio.h ****     typedef const float* const* InputBuffer;
  45:../../DaisyExamples/libDaisy/src/hid/audio.h **** 
  46:../../DaisyExamples/libDaisy/src/hid/audio.h ****     /** Non-Interleaving output buffer
  47:../../DaisyExamples/libDaisy/src/hid/audio.h ****      * Arranged by float[chn][sample] 
  48:../../DaisyExamples/libDaisy/src/hid/audio.h ****      */
  49:../../DaisyExamples/libDaisy/src/hid/audio.h ****     typedef float** OutputBuffer;
  50:../../DaisyExamples/libDaisy/src/hid/audio.h **** 
  51:../../DaisyExamples/libDaisy/src/hid/audio.h ****     /** Type for a Non-Interleaving audio callback 
  52:../../DaisyExamples/libDaisy/src/hid/audio.h ****      * Non-Interleaving audio callbacks in daisy will be of this type
  53:../../DaisyExamples/libDaisy/src/hid/audio.h ****      */
  54:../../DaisyExamples/libDaisy/src/hid/audio.h ****     typedef void (*AudioCallback)(InputBuffer  in,
  55:../../DaisyExamples/libDaisy/src/hid/audio.h ****                                   OutputBuffer out,
ARM GAS  C:\Users\guita\AppData\Local\Temp\ccRE0rrt.s 			page 10


  56:../../DaisyExamples/libDaisy/src/hid/audio.h ****                                   size_t       size);
  57:../../DaisyExamples/libDaisy/src/hid/audio.h **** 
  58:../../DaisyExamples/libDaisy/src/hid/audio.h ****     /** Interleaving Input buffer
  59:../../DaisyExamples/libDaisy/src/hid/audio.h ****      ** audio is prepared as { L0, R0, L1, R1, . . . LN, RN }]
  60:../../DaisyExamples/libDaisy/src/hid/audio.h ****      ** this is const, as the user shouldn't modify it
  61:../../DaisyExamples/libDaisy/src/hid/audio.h ****     */
  62:../../DaisyExamples/libDaisy/src/hid/audio.h ****     typedef const float* InterleavingInputBuffer;
  63:../../DaisyExamples/libDaisy/src/hid/audio.h **** 
  64:../../DaisyExamples/libDaisy/src/hid/audio.h ****     /** Interleaving Output buffer 
  65:../../DaisyExamples/libDaisy/src/hid/audio.h ****      ** audio is prepared as { L0, R0, L1, R1, . . . LN, RN }
  66:../../DaisyExamples/libDaisy/src/hid/audio.h ****     */
  67:../../DaisyExamples/libDaisy/src/hid/audio.h ****     typedef float* InterleavingOutputBuffer;
  68:../../DaisyExamples/libDaisy/src/hid/audio.h **** 
  69:../../DaisyExamples/libDaisy/src/hid/audio.h ****     /** Interleaving Audio Callback 
  70:../../DaisyExamples/libDaisy/src/hid/audio.h ****      * Interleaving audio callbacks in daisy must be of this type
  71:../../DaisyExamples/libDaisy/src/hid/audio.h ****      */
  72:../../DaisyExamples/libDaisy/src/hid/audio.h ****     typedef void (*InterleavingAudioCallback)(InterleavingInputBuffer  in,
  73:../../DaisyExamples/libDaisy/src/hid/audio.h ****                                               InterleavingOutputBuffer out,
  74:../../DaisyExamples/libDaisy/src/hid/audio.h ****                                               size_t                   size);
  75:../../DaisyExamples/libDaisy/src/hid/audio.h **** 
  76:../../DaisyExamples/libDaisy/src/hid/audio.h ****     AudioHandle() : pimpl_(nullptr) {}
  77:../../DaisyExamples/libDaisy/src/hid/audio.h ****     ~AudioHandle() {}
 146              		.loc 8 77 5 is_stmt 1 view .LVU19
 147              		.loc 8 77 5 is_stmt 0 view .LVU20
 148              	.LBE317:
 149              		.loc 4 22 19 view .LVU21
 150 0000 7047     		bx	lr
 151              		.cfi_endproc
 152              	.LFE2167:
 154              		.weak	_ZN5daisy9DaisySeedD1Ev
 155              		.thumb_set _ZN5daisy9DaisySeedD1Ev,_ZN5daisy9DaisySeedD2Ev
 156 0002 00BF     		.section	.text._ZN14LB_EnvDetectorD2Ev,"axG",%progbits,_ZN14LB_EnvDetectorD5Ev,comdat
 157              		.align	1
 158              		.p2align 2,,3
 159              		.weak	_ZN14LB_EnvDetectorD2Ev
 160              		.syntax unified
 161              		.thumb
 162              		.thumb_func
 163              		.fpu fpv5-d16
 165              	_ZN14LB_EnvDetectorD2Ev:
 166              	.LVL4:
 167              	.LFB2241:
 168              		.file 9 "FXObjects/LBFX.h"
   1:FXObjects/LBFX.h **** /** @file LBFX.h
   2:FXObjects/LBFX.h **** \brief FX Objects File
   3:FXObjects/LBFX.h **** */
   4:FXObjects/LBFX.h **** #include <cstring>
   5:FXObjects/LBFX.h **** #include <math.h>
   6:FXObjects/LBFX.h **** #pragma once
   7:FXObjects/LBFX.h **** 
   8:FXObjects/LBFX.h **** enum filterCoeff { a0, a1, a2, b1, b2, c0, d0, numCoeffs };
   9:FXObjects/LBFX.h **** enum stateReg { x_z1, x_z2, y_z1, y_z2, numStates };
  10:FXObjects/LBFX.h **** 
  11:FXObjects/LBFX.h **** //Constants
  12:FXObjects/LBFX.h **** const double kSmallestPositiveFloatValue = 1.175494351e-38;         /* min positive value */
  13:FXObjects/LBFX.h **** const double kSmallestNegativeFloatValue = -1.175494351e-38;         /* min negative value */
  14:FXObjects/LBFX.h **** const double TLD_AUDIO_ENVELOPE_ANALOG_TC = -0.99967234081320612357829304641019; // ln(36.7%)
ARM GAS  C:\Users\guita\AppData\Local\Temp\ccRE0rrt.s 			page 11


  15:FXObjects/LBFX.h **** const double kPi = 3.14159265358979323846;
  16:FXObjects/LBFX.h **** 
  17:FXObjects/LBFX.h **** /**
  18:FXObjects/LBFX.h **** @checkFloatUnderflow
  19:FXObjects/LBFX.h **** \ingroup FX-Functions
  20:FXObjects/LBFX.h **** 
  21:FXObjects/LBFX.h **** @brief Perform underflow check; returns true if we did underflow (user may not care)
  22:FXObjects/LBFX.h **** 
  23:FXObjects/LBFX.h **** \param value - the value to check for underflow
  24:FXObjects/LBFX.h **** \return true if overflowed, false otherwise
  25:FXObjects/LBFX.h **** */
  26:FXObjects/LBFX.h **** inline bool checkFloatUnderflow(double& value)
  27:FXObjects/LBFX.h **** {
  28:FXObjects/LBFX.h **** 	bool retValue = false;
  29:FXObjects/LBFX.h **** 	if (value > 0.0 && value < kSmallestPositiveFloatValue)
  30:FXObjects/LBFX.h **** 	{
  31:FXObjects/LBFX.h **** 		value = 0;
  32:FXObjects/LBFX.h **** 		retValue = true;
  33:FXObjects/LBFX.h **** 	}
  34:FXObjects/LBFX.h **** 	else if (value < 0.0 && value > kSmallestNegativeFloatValue)
  35:FXObjects/LBFX.h **** 	{
  36:FXObjects/LBFX.h **** 		value = 0;
  37:FXObjects/LBFX.h **** 		retValue = true;
  38:FXObjects/LBFX.h **** 	}
  39:FXObjects/LBFX.h **** 	return retValue;
  40:FXObjects/LBFX.h **** }
  41:FXObjects/LBFX.h **** 
  42:FXObjects/LBFX.h **** 
  43:FXObjects/LBFX.h **** /* 
  44:FXObjects/LBFX.h **** 
  45:FXObjects/LBFX.h **** Biquad object, by Lucas Burkholder
  46:FXObjects/LBFX.h **** 
  47:FXObjects/LBFX.h **** */
  48:FXObjects/LBFX.h **** 
  49:FXObjects/LBFX.h **** class LBBiquad {
  50:FXObjects/LBFX.h **** 
  51:FXObjects/LBFX.h **** public:
  52:FXObjects/LBFX.h **** 
  53:FXObjects/LBFX.h **** 	LBBiquad() {} //Constructor
  54:FXObjects/LBFX.h **** 	~LBBiquad() {} //Destructor
  55:FXObjects/LBFX.h **** 
  56:FXObjects/LBFX.h **** 	bool reset(double _sampleRate) {
  57:FXObjects/LBFX.h **** 		memset(&stateArray[0], 0, sizeof(double) * numStates);
  58:FXObjects/LBFX.h **** 		return true;
  59:FXObjects/LBFX.h **** 	}
  60:FXObjects/LBFX.h **** 
  61:FXObjects/LBFX.h **** 	virtual double processAudioSample(double xn);
  62:FXObjects/LBFX.h **** 
  63:FXObjects/LBFX.h **** 	bool canProcessAudioFrame() { return false; }
  64:FXObjects/LBFX.h **** 
  65:FXObjects/LBFX.h **** 	void setCoefficients(double* coeffs) {
  66:FXObjects/LBFX.h **** 		memcpy(&coeffArray[0], &coeffs[0], sizeof(double) * numCoeffs);
  67:FXObjects/LBFX.h **** 	}
  68:FXObjects/LBFX.h **** 
  69:FXObjects/LBFX.h **** 	double* getCoefficients() {
  70:FXObjects/LBFX.h **** 		return &coeffArray[0];
  71:FXObjects/LBFX.h **** 	}
ARM GAS  C:\Users\guita\AppData\Local\Temp\ccRE0rrt.s 			page 12


  72:FXObjects/LBFX.h **** 
  73:FXObjects/LBFX.h **** 	double* getStateArray() {
  74:FXObjects/LBFX.h **** 		return &stateArray[0];
  75:FXObjects/LBFX.h **** 	}
  76:FXObjects/LBFX.h **** 
  77:FXObjects/LBFX.h **** protected:
  78:FXObjects/LBFX.h **** 	double coeffArray[numCoeffs] = { 0.0, 0.0, 0.0, 0.0, 0.0, 0.0, 0.0 };
  79:FXObjects/LBFX.h **** 	double stateArray[numStates] = { 0.0, 0.0, 0.0, 0.0 };
  80:FXObjects/LBFX.h **** };
  81:FXObjects/LBFX.h **** 
  82:FXObjects/LBFX.h **** 
  83:FXObjects/LBFX.h **** struct LB_LPFParameters {
  84:FXObjects/LBFX.h **** 	LB_LPFParameters() {}
  85:FXObjects/LBFX.h **** 
  86:FXObjects/LBFX.h **** 	LB_LPFParameters& operator=(const LB_LPFParameters& params) {
  87:FXObjects/LBFX.h **** 		if (this == &params) return *this;
  88:FXObjects/LBFX.h **** 		fc = params.fc;
  89:FXObjects/LBFX.h **** 		Q = params.Q;
  90:FXObjects/LBFX.h **** 		return *this;
  91:FXObjects/LBFX.h **** 	}
  92:FXObjects/LBFX.h **** 
  93:FXObjects/LBFX.h **** 	double fc = 100;
  94:FXObjects/LBFX.h **** 	double Q = 0.707;
  95:FXObjects/LBFX.h **** };
  96:FXObjects/LBFX.h **** 
  97:FXObjects/LBFX.h **** struct LB_PEQParameters {
  98:FXObjects/LBFX.h **** 	LB_PEQParameters() {}
  99:FXObjects/LBFX.h **** 
 100:FXObjects/LBFX.h **** 	LB_PEQParameters& operator=(const LB_PEQParameters& params) {
 101:FXObjects/LBFX.h **** 		if (this == &params) return *this;
 102:FXObjects/LBFX.h **** 		fc = params.fc;
 103:FXObjects/LBFX.h **** 		Q = params.Q;
 104:FXObjects/LBFX.h **** 		gain = params.gain;
 105:FXObjects/LBFX.h **** 		return *this;
 106:FXObjects/LBFX.h **** 	}
 107:FXObjects/LBFX.h **** 
 108:FXObjects/LBFX.h **** 	double fc = 1000;  
 109:FXObjects/LBFX.h **** 	double Q = 0.707;  
 110:FXObjects/LBFX.h **** 	double gain = 0.0; 
 111:FXObjects/LBFX.h **** };
 112:FXObjects/LBFX.h **** 
 113:FXObjects/LBFX.h **** struct LB_HSFParameters {
 114:FXObjects/LBFX.h **** 	LB_HSFParameters() {}
 115:FXObjects/LBFX.h **** 
 116:FXObjects/LBFX.h **** 	LB_HSFParameters& operator=(const LB_HSFParameters& params) {
 117:FXObjects/LBFX.h **** 		if (this == &params) return *this;
 118:FXObjects/LBFX.h **** 		fc = params.fc;
 119:FXObjects/LBFX.h **** 		gain = params.gain;
 120:FXObjects/LBFX.h **** 		return *this;
 121:FXObjects/LBFX.h **** 	}
 122:FXObjects/LBFX.h **** 
 123:FXObjects/LBFX.h **** 	double fc = 1000;
 124:FXObjects/LBFX.h **** 	double gain = 0.0;
 125:FXObjects/LBFX.h **** };
 126:FXObjects/LBFX.h **** 
 127:FXObjects/LBFX.h **** struct LB_CompressorParameters {
 128:FXObjects/LBFX.h **** 	LB_CompressorParameters() {}
ARM GAS  C:\Users\guita\AppData\Local\Temp\ccRE0rrt.s 			page 13


 129:FXObjects/LBFX.h **** 	
 130:FXObjects/LBFX.h **** 	LB_CompressorParameters& operator=(const LB_CompressorParameters& params) {
 131:FXObjects/LBFX.h **** 		if (this == &params) return *this;
 132:FXObjects/LBFX.h **** 		threshold_dB = params.threshold_dB;
 133:FXObjects/LBFX.h **** 		ratio = params.ratio;
 134:FXObjects/LBFX.h **** 		attackTime = params.attackTime;
 135:FXObjects/LBFX.h **** 		releaseTime = params.releaseTime;
 136:FXObjects/LBFX.h **** 		outputGain = params.outputGain;
 137:FXObjects/LBFX.h **** 		return *this;
 138:FXObjects/LBFX.h **** 	}
 139:FXObjects/LBFX.h **** 
 140:FXObjects/LBFX.h **** 	double threshold_dB = threshold_dB;
 141:FXObjects/LBFX.h **** 	double ratio = ratio;
 142:FXObjects/LBFX.h **** 	double attackTime = attackTime; //in ms
 143:FXObjects/LBFX.h **** 	double releaseTime = releaseTime;
 144:FXObjects/LBFX.h **** 	double outputGain = outputGain;
 145:FXObjects/LBFX.h **** 
 146:FXObjects/LBFX.h **** };
 147:FXObjects/LBFX.h **** 
 148:FXObjects/LBFX.h **** struct LB_EnvDetectorParameters {
 149:FXObjects/LBFX.h **** 	LB_EnvDetectorParameters() {}
 150:FXObjects/LBFX.h **** 	LB_EnvDetectorParameters& operator=(const LB_EnvDetectorParameters& params) {
 151:FXObjects/LBFX.h **** 		if (this == &params) return *this;
 152:FXObjects/LBFX.h **** 		attackTime = params.attackTime;
 153:FXObjects/LBFX.h **** 		releaseTime = params.releaseTime;
 154:FXObjects/LBFX.h **** 		detect_dB = params.detect_dB;
 155:FXObjects/LBFX.h **** 		return *this;
 156:FXObjects/LBFX.h **** 	}
 157:FXObjects/LBFX.h **** 
 158:FXObjects/LBFX.h **** 	double attackTime = 0.0; //in ms
 159:FXObjects/LBFX.h **** 	double releaseTime = 0.0; //in ms
 160:FXObjects/LBFX.h **** 	bool detect_dB = false;
 161:FXObjects/LBFX.h **** };
 162:FXObjects/LBFX.h **** 
 163:FXObjects/LBFX.h **** /* 
 164:FXObjects/LBFX.h **** 	Low Pass Filter Object, by Lucas Burkholder
 165:FXObjects/LBFX.h **** */
 166:FXObjects/LBFX.h **** 
 167:FXObjects/LBFX.h **** class LB_LPF {
 168:FXObjects/LBFX.h **** public:
 169:FXObjects/LBFX.h **** 	LB_LPF() {}
 170:FXObjects/LBFX.h **** 	~LB_LPF() {}
 171:FXObjects/LBFX.h **** 
 172:FXObjects/LBFX.h **** 	LB_LPFParameters getParameters() {
 173:FXObjects/LBFX.h **** 		return parameters;
 174:FXObjects/LBFX.h **** 	}
 175:FXObjects/LBFX.h **** 
 176:FXObjects/LBFX.h **** 	void setParameters(LB_LPFParameters _parameters) {
 177:FXObjects/LBFX.h **** 		if (parameters.fc != _parameters.fc || parameters.Q != _parameters.Q) {
 178:FXObjects/LBFX.h **** 			parameters = _parameters;
 179:FXObjects/LBFX.h **** 		}
 180:FXObjects/LBFX.h **** 		else return;
 181:FXObjects/LBFX.h **** 
 182:FXObjects/LBFX.h **** 		if (parameters.Q <= 0) parameters.Q = 0.707;
 183:FXObjects/LBFX.h **** 
 184:FXObjects/LBFX.h **** 		//update coefficients
 185:FXObjects/LBFX.h **** 		calculateFilterCoeffs();
ARM GAS  C:\Users\guita\AppData\Local\Temp\ccRE0rrt.s 			page 14


 186:FXObjects/LBFX.h **** 	}
 187:FXObjects/LBFX.h **** 
 188:FXObjects/LBFX.h **** 	bool reset(double _sampleRate) {
 189:FXObjects/LBFX.h **** 		sampleRate = _sampleRate;
 190:FXObjects/LBFX.h **** 		return biquad.reset(sampleRate);
 191:FXObjects/LBFX.h **** 	}
 192:FXObjects/LBFX.h **** 
 193:FXObjects/LBFX.h **** 	double processAudioSample(double xn);
 194:FXObjects/LBFX.h **** 
 195:FXObjects/LBFX.h **** 	void setSampleRate(double _sampleRate) {
 196:FXObjects/LBFX.h **** 		sampleRate = _sampleRate;
 197:FXObjects/LBFX.h **** 		calculateFilterCoeffs();
 198:FXObjects/LBFX.h **** 	}
 199:FXObjects/LBFX.h **** 
 200:FXObjects/LBFX.h **** 	bool canProcessAudioFrame() { return false; }
 201:FXObjects/LBFX.h **** 
 202:FXObjects/LBFX.h **** protected:
 203:FXObjects/LBFX.h **** 	LBBiquad biquad;
 204:FXObjects/LBFX.h **** 	double coeffArray[numCoeffs] = { 0.0, 0.0, 0.0, 0.0, 0.0, 0.0, 0.0 };
 205:FXObjects/LBFX.h **** 
 206:FXObjects/LBFX.h **** 	LB_LPFParameters parameters;
 207:FXObjects/LBFX.h **** 	double sampleRate = 48000;
 208:FXObjects/LBFX.h **** 
 209:FXObjects/LBFX.h **** 	bool calculateFilterCoeffs();
 210:FXObjects/LBFX.h **** };
 211:FXObjects/LBFX.h **** 
 212:FXObjects/LBFX.h **** class LB_PEQ {
 213:FXObjects/LBFX.h **** public: 
 214:FXObjects/LBFX.h **** 	LB_PEQ() {}
 215:FXObjects/LBFX.h **** 	~LB_PEQ() {}
 216:FXObjects/LBFX.h **** 
 217:FXObjects/LBFX.h **** 	LB_PEQParameters getParameters() {
 218:FXObjects/LBFX.h **** 		return parameters;
 219:FXObjects/LBFX.h **** 	}
 220:FXObjects/LBFX.h **** 
 221:FXObjects/LBFX.h **** 	void setParameters(LB_PEQParameters _parameters) {
 222:FXObjects/LBFX.h **** 		if (parameters.fc != _parameters.fc || parameters.Q != _parameters.Q || parameters.gain != _param
 223:FXObjects/LBFX.h **** 
 224:FXObjects/LBFX.h **** 			parameters = _parameters;
 225:FXObjects/LBFX.h **** 		} else return;
 226:FXObjects/LBFX.h **** 
 227:FXObjects/LBFX.h **** 		if (parameters.Q <= 0) parameters.Q = 0.707;
 228:FXObjects/LBFX.h **** 
 229:FXObjects/LBFX.h **** 		//update coefficients
 230:FXObjects/LBFX.h **** 		calculateFilterCoeffs();
 231:FXObjects/LBFX.h **** 	}
 232:FXObjects/LBFX.h **** 
 233:FXObjects/LBFX.h **** 	bool reset(double _sampleRate) {
 234:FXObjects/LBFX.h **** 		sampleRate = _sampleRate;
 235:FXObjects/LBFX.h **** 		return biquad.reset(sampleRate);
 236:FXObjects/LBFX.h **** 	}
 237:FXObjects/LBFX.h **** 
 238:FXObjects/LBFX.h **** 	double processAudioSample(double xn);
 239:FXObjects/LBFX.h **** 
 240:FXObjects/LBFX.h **** 	void setSampleRate(double _sampleRate) {
 241:FXObjects/LBFX.h **** 		sampleRate = _sampleRate;
 242:FXObjects/LBFX.h **** 		calculateFilterCoeffs();
ARM GAS  C:\Users\guita\AppData\Local\Temp\ccRE0rrt.s 			page 15


 243:FXObjects/LBFX.h **** 	}
 244:FXObjects/LBFX.h **** 
 245:FXObjects/LBFX.h **** 	bool canProcessAudioFrame() { return false; }
 246:FXObjects/LBFX.h **** 
 247:FXObjects/LBFX.h **** protected:
 248:FXObjects/LBFX.h **** 	LBBiquad biquad;
 249:FXObjects/LBFX.h **** 	double coeffArray[numCoeffs] = { 0.0, 0.0, 0.0, 0.0, 0.0, 0.0, 0.0 };
 250:FXObjects/LBFX.h **** 	
 251:FXObjects/LBFX.h **** 	LB_PEQParameters parameters;
 252:FXObjects/LBFX.h **** 	double sampleRate = 44100;
 253:FXObjects/LBFX.h **** 
 254:FXObjects/LBFX.h **** 
 255:FXObjects/LBFX.h **** 	bool calculateFilterCoeffs();
 256:FXObjects/LBFX.h **** };
 257:FXObjects/LBFX.h **** 
 258:FXObjects/LBFX.h **** class LB_HSF {
 259:FXObjects/LBFX.h **** public:
 260:FXObjects/LBFX.h **** 	LB_HSF() {}
 261:FXObjects/LBFX.h **** 	~LB_HSF() {}
 262:FXObjects/LBFX.h **** 
 263:FXObjects/LBFX.h **** 	LB_HSFParameters getParameters() {
 264:FXObjects/LBFX.h **** 		return parameters;
 265:FXObjects/LBFX.h **** 	}
 266:FXObjects/LBFX.h **** 
 267:FXObjects/LBFX.h **** 	void setParameters(LB_HSFParameters _parameters) {
 268:FXObjects/LBFX.h **** 		if (parameters.fc != _parameters.fc || parameters.gain != _parameters.gain) {
 269:FXObjects/LBFX.h **** 			parameters = _parameters;
 270:FXObjects/LBFX.h **** 		}
 271:FXObjects/LBFX.h **** 		else return;
 272:FXObjects/LBFX.h **** 		
 273:FXObjects/LBFX.h **** 		calculateFilterCoeffs();
 274:FXObjects/LBFX.h **** 	}
 275:FXObjects/LBFX.h **** 
 276:FXObjects/LBFX.h **** 	bool reset(double _sampleRate) {
 277:FXObjects/LBFX.h **** 		sampleRate = _sampleRate;
 278:FXObjects/LBFX.h **** 		return biquad.reset(sampleRate);
 279:FXObjects/LBFX.h **** 	}
 280:FXObjects/LBFX.h **** 
 281:FXObjects/LBFX.h **** 	double processAudioSample(double xn);
 282:FXObjects/LBFX.h **** 
 283:FXObjects/LBFX.h **** 	void setSampleRate(double _sampleRate) {
 284:FXObjects/LBFX.h **** 		sampleRate = _sampleRate;
 285:FXObjects/LBFX.h **** 		calculateFilterCoeffs();
 286:FXObjects/LBFX.h **** 	}
 287:FXObjects/LBFX.h **** 
 288:FXObjects/LBFX.h **** 	bool canProcessAudioFrame() { return false; }
 289:FXObjects/LBFX.h **** 
 290:FXObjects/LBFX.h **** protected:
 291:FXObjects/LBFX.h **** 	LBBiquad biquad;
 292:FXObjects/LBFX.h **** 	double coeffArray[numCoeffs] = { 0.0, 0.0, 0.0, 0.0, 0.0, 0.0, 0.0 };
 293:FXObjects/LBFX.h **** 
 294:FXObjects/LBFX.h **** 	LB_HSFParameters parameters;
 295:FXObjects/LBFX.h **** 	double sampleRate = 44100;
 296:FXObjects/LBFX.h **** 	bool calculateFilterCoeffs();
 297:FXObjects/LBFX.h **** 	
 298:FXObjects/LBFX.h **** };
 299:FXObjects/LBFX.h **** 
ARM GAS  C:\Users\guita\AppData\Local\Temp\ccRE0rrt.s 			page 16


 300:FXObjects/LBFX.h **** class LB_EnvDetector {
 301:FXObjects/LBFX.h **** public:
 302:FXObjects/LBFX.h **** 	LB_EnvDetector() {}
 303:FXObjects/LBFX.h **** 	~LB_EnvDetector() {}
 169              		.loc 9 303 2 is_stmt 1 view -0
 170              		.cfi_startproc
 171              		@ args = 0, pretend = 0, frame = 0
 172              		@ frame_needed = 0, uses_anonymous_args = 0
 173              		@ link register save eliminated.
 174              		.loc 9 303 21 is_stmt 0 view .LVU23
 175 0000 7047     		bx	lr
 176              		.cfi_endproc
 177              	.LFE2241:
 179              		.weak	_ZN14LB_EnvDetectorD1Ev
 180              		.thumb_set _ZN14LB_EnvDetectorD1Ev,_ZN14LB_EnvDetectorD2Ev
 181              		.section	.text._ZN14LB_EnvDetector5resetEd,"axG",%progbits,_ZN14LB_EnvDetector5resetEd,comdat
 182              		.align	1
 183              		.p2align 2,,3
 184              		.weak	_ZN14LB_EnvDetector5resetEd
 185              		.syntax unified
 186              		.thumb
 187              		.thumb_func
 188              		.fpu fpv5-d16
 190              	_ZN14LB_EnvDetector5resetEd:
 191              	.LVL5:
 192              	.LFB2245:
 304:FXObjects/LBFX.h **** 
 305:FXObjects/LBFX.h **** 	LB_EnvDetectorParameters getParameters() {
 306:FXObjects/LBFX.h **** 		return parameters;
 307:FXObjects/LBFX.h **** 	}
 308:FXObjects/LBFX.h **** 
 309:FXObjects/LBFX.h **** 	void setParameters(LB_EnvDetectorParameters _parameters) {
 310:FXObjects/LBFX.h **** 		parameters = _parameters;
 311:FXObjects/LBFX.h **** 
 312:FXObjects/LBFX.h **** 		setAttackTime(_parameters.attackTime, true);
 313:FXObjects/LBFX.h **** 		setReleaseTime(_parameters.releaseTime, true);
 314:FXObjects/LBFX.h **** 	}
 315:FXObjects/LBFX.h **** 
 316:FXObjects/LBFX.h **** 	virtual bool reset(double _sampleRate) {
 193              		.loc 9 316 15 is_stmt 1 view -0
 194              		.cfi_startproc
 195              		@ args = 0, pretend = 0, frame = 0
 196              		@ frame_needed = 0, uses_anonymous_args = 0
 197              		@ link register save eliminated.
 317:FXObjects/LBFX.h **** 		sampleRate = _sampleRate;
 198              		.loc 9 317 3 view .LVU25
 318:FXObjects/LBFX.h **** 		lastEnvelope = 0.0;
 199              		.loc 9 318 16 is_stmt 0 view .LVU26
 200 0000 0022     		movs	r2, #0
 201 0002 0023     		movs	r3, #0
 317:FXObjects/LBFX.h **** 		sampleRate = _sampleRate;
 202              		.loc 9 317 14 view .LVU27
 203 0004 80ED080B 		vstr.64	d0, [r0, #32]
 204              		.loc 9 318 3 is_stmt 1 view .LVU28
 205              		.loc 9 318 16 is_stmt 0 view .LVU29
 206 0008 C0E90E23 		strd	r2, [r0, #56]
 319:FXObjects/LBFX.h **** 		return true;
ARM GAS  C:\Users\guita\AppData\Local\Temp\ccRE0rrt.s 			page 17


 207              		.loc 9 319 3 is_stmt 1 view .LVU30
 320:FXObjects/LBFX.h **** 	}
 208              		.loc 9 320 2 is_stmt 0 view .LVU31
 209 000c 0120     		movs	r0, #1
 210              	.LVL6:
 211              		.loc 9 320 2 view .LVU32
 212 000e 7047     		bx	lr
 213              		.cfi_endproc
 214              	.LFE2245:
 216              		.section	.text._ZN14LB_EnvDetector20canProcessAudioFrameEv,"axG",%progbits,_ZN14LB_EnvDetector20ca
 217              		.align	1
 218              		.p2align 2,,3
 219              		.weak	_ZN14LB_EnvDetector20canProcessAudioFrameEv
 220              		.syntax unified
 221              		.thumb
 222              		.thumb_func
 223              		.fpu fpv5-d16
 225              	_ZN14LB_EnvDetector20canProcessAudioFrameEv:
 226              	.LVL7:
 227              	.LFB2248:
 321:FXObjects/LBFX.h **** 
 322:FXObjects/LBFX.h **** 	virtual double processAudioSample(double xn) {
 323:FXObjects/LBFX.h **** 		//full wave rectification
 324:FXObjects/LBFX.h **** 		double input = fabs(xn);
 325:FXObjects/LBFX.h **** 
 326:FXObjects/LBFX.h **** 		//Square it (RMS)
 327:FXObjects/LBFX.h **** 		input *= input;
 328:FXObjects/LBFX.h **** 
 329:FXObjects/LBFX.h **** 		double currEnvelope = 0.0;
 330:FXObjects/LBFX.h **** 
 331:FXObjects/LBFX.h **** 		if (input > lastEnvelope)
 332:FXObjects/LBFX.h **** 			currEnvelope = attackTime * (lastEnvelope - input) + input;
 333:FXObjects/LBFX.h **** 		else
 334:FXObjects/LBFX.h **** 			currEnvelope = releaseTime * (lastEnvelope - input) + input;
 335:FXObjects/LBFX.h **** 
 336:FXObjects/LBFX.h **** 		checkFloatUnderflow(currEnvelope);
 337:FXObjects/LBFX.h **** 
 338:FXObjects/LBFX.h **** 		//bound here if desired
 339:FXObjects/LBFX.h **** 
 340:FXObjects/LBFX.h **** 		currEnvelope = fmax(currEnvelope, 0.0);
 341:FXObjects/LBFX.h **** 
 342:FXObjects/LBFX.h **** 		lastEnvelope = currEnvelope;
 343:FXObjects/LBFX.h **** 
 344:FXObjects/LBFX.h **** 		//do SQRT bc RMS
 345:FXObjects/LBFX.h **** 		currEnvelope = pow(currEnvelope, 0.5);
 346:FXObjects/LBFX.h **** 
 347:FXObjects/LBFX.h **** 		if (!parameters.detect_dB) return currEnvelope;
 348:FXObjects/LBFX.h **** 
 349:FXObjects/LBFX.h **** 		return 20.0 * log10(currEnvelope);
 350:FXObjects/LBFX.h **** 	}
 351:FXObjects/LBFX.h **** 
 352:FXObjects/LBFX.h **** 	virtual void setSampleRate(double _sampleRate) {
 353:FXObjects/LBFX.h **** 		if (sampleRate == _sampleRate) return;
 354:FXObjects/LBFX.h **** 		sampleRate = _sampleRate;
 355:FXObjects/LBFX.h **** 
 356:FXObjects/LBFX.h **** 		setAttackTime(parameters.attackTime, true);
 357:FXObjects/LBFX.h **** 		setReleaseTime(parameters.releaseTime, true);
ARM GAS  C:\Users\guita\AppData\Local\Temp\ccRE0rrt.s 			page 18


 358:FXObjects/LBFX.h **** 	}
 359:FXObjects/LBFX.h **** 
 360:FXObjects/LBFX.h **** 	virtual bool canProcessAudioFrame() { return false; }
 228              		.loc 9 360 15 is_stmt 1 view -0
 229              		.cfi_startproc
 230              		@ args = 0, pretend = 0, frame = 0
 231              		@ frame_needed = 0, uses_anonymous_args = 0
 232              		@ link register save eliminated.
 233              		.loc 9 360 40 view .LVU34
 234              		.loc 9 360 54 is_stmt 0 view .LVU35
 235 0000 0020     		movs	r0, #0
 236              	.LVL8:
 237              		.loc 9 360 54 view .LVU36
 238 0002 7047     		bx	lr
 239              		.cfi_endproc
 240              	.LFE2248:
 242              		.section	.text._ZN13LB_Compressor20canProcessAudioFrameEv,"axG",%progbits,_ZN13LB_Compressor20canP
 243              		.align	1
 244              		.p2align 2,,3
 245              		.weak	_ZN13LB_Compressor20canProcessAudioFrameEv
 246              		.syntax unified
 247              		.thumb
 248              		.thumb_func
 249              		.fpu fpv5-d16
 251              	_ZN13LB_Compressor20canProcessAudioFrameEv:
 252              	.LVL9:
 253              	.LFB2261:
 361:FXObjects/LBFX.h **** 
 362:FXObjects/LBFX.h **** protected:
 363:FXObjects/LBFX.h **** 	LB_EnvDetectorParameters parameters;
 364:FXObjects/LBFX.h **** 	double sampleRate = 44100;
 365:FXObjects/LBFX.h **** 	double attackTime;
 366:FXObjects/LBFX.h **** 	double releaseTime;
 367:FXObjects/LBFX.h **** 	double lastEnvelope;
 368:FXObjects/LBFX.h **** 
 369:FXObjects/LBFX.h **** 	void setAttackTime(double attack_ms, bool forceCalc) {
 370:FXObjects/LBFX.h **** 		if (!forceCalc && parameters.attackTime == attack_ms) return;
 371:FXObjects/LBFX.h **** 		parameters.attackTime = attack_ms;
 372:FXObjects/LBFX.h **** 		//try this with -1?
 373:FXObjects/LBFX.h **** 		attackTime = exp(TLD_AUDIO_ENVELOPE_ANALOG_TC / (attack_ms * sampleRate * 0.001));
 374:FXObjects/LBFX.h **** 	}
 375:FXObjects/LBFX.h **** 
 376:FXObjects/LBFX.h **** 	void setReleaseTime(double release_ms, bool forceCalc) {
 377:FXObjects/LBFX.h **** 		if (!forceCalc && parameters.releaseTime == release_ms) return;
 378:FXObjects/LBFX.h **** 		parameters.releaseTime = release_ms;
 379:FXObjects/LBFX.h **** 		releaseTime = exp(TLD_AUDIO_ENVELOPE_ANALOG_TC / (release_ms * sampleRate * 0.001));
 380:FXObjects/LBFX.h **** 	}
 381:FXObjects/LBFX.h **** };
 382:FXObjects/LBFX.h **** 
 383:FXObjects/LBFX.h **** class LB_Compressor {
 384:FXObjects/LBFX.h **** public:
 385:FXObjects/LBFX.h **** 	LB_Compressor() {}
 386:FXObjects/LBFX.h **** 	~LB_Compressor() {}
 387:FXObjects/LBFX.h **** 
 388:FXObjects/LBFX.h **** 	LB_CompressorParameters getParameters() {
 389:FXObjects/LBFX.h **** 		return parameters;
 390:FXObjects/LBFX.h **** 	}
ARM GAS  C:\Users\guita\AppData\Local\Temp\ccRE0rrt.s 			page 19


 391:FXObjects/LBFX.h **** 
 392:FXObjects/LBFX.h **** 	void setParameters(LB_CompressorParameters _parameters) {
 393:FXObjects/LBFX.h **** 		parameters = _parameters;
 394:FXObjects/LBFX.h **** 
 395:FXObjects/LBFX.h **** 		LB_EnvDetectorParameters detectorParams = detector.getParameters();
 396:FXObjects/LBFX.h **** 		detectorParams.attackTime = parameters.attackTime;
 397:FXObjects/LBFX.h **** 		detectorParams.releaseTime = parameters.releaseTime;
 398:FXObjects/LBFX.h **** 		detector.setParameters(detectorParams);
 399:FXObjects/LBFX.h **** 	}
 400:FXObjects/LBFX.h **** 
 401:FXObjects/LBFX.h **** 	virtual bool reset(double _sampleRate) {
 402:FXObjects/LBFX.h **** 		detector.reset(_sampleRate);
 403:FXObjects/LBFX.h **** 		LB_EnvDetectorParameters detectorParams = detector.getParameters();
 404:FXObjects/LBFX.h **** 		detectorParams.detect_dB = true;
 405:FXObjects/LBFX.h **** 		detector.setParameters(detectorParams);
 406:FXObjects/LBFX.h **** 		return true;
 407:FXObjects/LBFX.h **** 	}
 408:FXObjects/LBFX.h **** 
 409:FXObjects/LBFX.h **** 	virtual double processAudioSample(double xn) {
 410:FXObjects/LBFX.h **** 		double detect_dB = detector.processAudioSample(xn); // no sidechain here yet
 411:FXObjects/LBFX.h **** 
 412:FXObjects/LBFX.h **** 		//compute gain
 413:FXObjects/LBFX.h **** 		double gr = computeGain(detect_dB);
 414:FXObjects/LBFX.h **** 
 415:FXObjects/LBFX.h **** 		//makeup gain
 416:FXObjects/LBFX.h **** 		double makeupGain = pow(10.0, parameters.outputGain / 20.0);
 417:FXObjects/LBFX.h **** 		return xn * gr * makeupGain;
 418:FXObjects/LBFX.h **** 	}
 419:FXObjects/LBFX.h **** 
 420:FXObjects/LBFX.h **** 	virtual bool canProcessAudioFrame() { return false; }
 254              		.loc 9 420 15 is_stmt 1 view -0
 255              		.cfi_startproc
 256              		@ args = 0, pretend = 0, frame = 0
 257              		@ frame_needed = 0, uses_anonymous_args = 0
 258              		@ link register save eliminated.
 259              		.loc 9 420 40 view .LVU38
 260              		.loc 9 420 54 is_stmt 0 view .LVU39
 261 0000 0020     		movs	r0, #0
 262              	.LVL10:
 263              		.loc 9 420 54 view .LVU40
 264 0002 7047     		bx	lr
 265              		.cfi_endproc
 266              	.LFE2261:
 268              		.section	.text._ZN8LBBiquad18processAudioSampleEd,"ax",%progbits
 269              		.align	1
 270              		.p2align 2,,3
 271              		.global	_ZN8LBBiquad18processAudioSampleEd
 272              		.syntax unified
 273              		.thumb
 274              		.thumb_func
 275              		.fpu fpv5-d16
 277              	_ZN8LBBiquad18processAudioSampleEd:
 278              	.LVL11:
 279              	.LFB2264:
 280              		.file 10 "FXObjects/LBFX.cpp"
   1:FXObjects/LBFX.cpp **** #include "LBFX.h"
   2:FXObjects/LBFX.cpp **** 
ARM GAS  C:\Users\guita\AppData\Local\Temp\ccRE0rrt.s 			page 20


   3:FXObjects/LBFX.cpp **** double LBBiquad::processAudioSample(double xn) {
 281              		.loc 10 3 48 is_stmt 1 view -0
 282              		.cfi_startproc
 283              		@ args = 0, pretend = 0, frame = 0
 284              		@ frame_needed = 0, uses_anonymous_args = 0
 285              		@ link register save eliminated.
   4:FXObjects/LBFX.cpp **** 	// Canonical form difference eqn
   5:FXObjects/LBFX.cpp **** 	double wn = xn - coeffArray[b1] * stateArray[x_z1]
 286              		.loc 10 5 2 view .LVU42
 287              		.loc 10 5 51 is_stmt 0 view .LVU43
 288 0000 90ED107B 		vldr.64	d7, [r0, #64]
 289              		.loc 10 5 17 view .LVU44
 290 0004 90ED082B 		vldr.64	d2, [r0, #32]
   6:FXObjects/LBFX.cpp **** 		- coeffArray[b2] * stateArray[x_z2];
 291              		.loc 10 6 37 view .LVU45
 292 0008 90ED121B 		vldr.64	d1, [r0, #72]
   5:FXObjects/LBFX.cpp **** 		- coeffArray[b2] * stateArray[x_z2];
 293              		.loc 10 5 9 view .LVU46
 294 000c 90ED0A4B 		vldr.64	d4, [r0, #40]
   5:FXObjects/LBFX.cpp **** 		- coeffArray[b2] * stateArray[x_z2];
 295              		.loc 10 5 17 view .LVU47
 296 0010 A2EE470B 		vfms.f64	d0, d2, d7
 297              	.LVL12:
   7:FXObjects/LBFX.cpp **** 	
   8:FXObjects/LBFX.cpp **** 	double yn = coeffArray[a0] * wn
   9:FXObjects/LBFX.cpp **** 		+ coeffArray[a1] * stateArray[x_z1]
 298              		.loc 10 9 20 view .LVU48
 299 0014 90ED043B 		vldr.64	d3, [r0, #16]
  10:FXObjects/LBFX.cpp **** 		+ coeffArray[a2] * stateArray[x_z2];
  11:FXObjects/LBFX.cpp **** 
  12:FXObjects/LBFX.cpp **** 	//underflow check?
  13:FXObjects/LBFX.cpp **** 	//checkFloatUnderflow(yn);
  14:FXObjects/LBFX.cpp **** 
  15:FXObjects/LBFX.cpp **** 	//update state registers
  16:FXObjects/LBFX.cpp **** 	stateArray[x_z2] = stateArray[x_z1];
 300              		.loc 10 16 19 view .LVU49
 301 0018 80ED127B 		vstr.64	d7, [r0, #72]
   9:FXObjects/LBFX.cpp **** 		+ coeffArray[a2] * stateArray[x_z2];
 302              		.loc 10 9 3 view .LVU50
 303 001c 90ED025B 		vldr.64	d5, [r0, #8]
   9:FXObjects/LBFX.cpp **** 		+ coeffArray[a2] * stateArray[x_z2];
 304              		.loc 10 9 20 view .LVU51
 305 0020 27EE037B 		vmul.f64	d7, d7, d3
   5:FXObjects/LBFX.cpp **** 		- coeffArray[b2] * stateArray[x_z2];
 306              		.loc 10 5 9 view .LVU52
 307 0024 B0EE406B 		vmov.f64	d6, d0
   8:FXObjects/LBFX.cpp **** 		+ coeffArray[a1] * stateArray[x_z1]
 308              		.loc 10 8 9 view .LVU53
 309 0028 90ED062B 		vldr.64	d2, [r0, #24]
   5:FXObjects/LBFX.cpp **** 		- coeffArray[b2] * stateArray[x_z2];
 310              		.loc 10 5 9 view .LVU54
 311 002c A4EE416B 		vfms.f64	d6, d4, d1
 312              	.LVL13:
   8:FXObjects/LBFX.cpp **** 		+ coeffArray[a1] * stateArray[x_z1]
 313              		.loc 10 8 2 is_stmt 1 view .LVU55
   9:FXObjects/LBFX.cpp **** 		+ coeffArray[a2] * stateArray[x_z2];
 314              		.loc 10 9 3 is_stmt 0 view .LVU56
ARM GAS  C:\Users\guita\AppData\Local\Temp\ccRE0rrt.s 			page 21


 315 0030 A5EE067B 		vfma.f64	d7, d5, d6
  17:FXObjects/LBFX.cpp **** 	stateArray[x_z1] = wn;
 316              		.loc 10 17 19 view .LVU57
 317 0034 80ED106B 		vstr.64	d6, [r0, #64]
   9:FXObjects/LBFX.cpp **** 		+ coeffArray[a2] * stateArray[x_z2];
 318              		.loc 10 9 3 view .LVU58
 319 0038 B0EE470B 		vmov.f64	d0, d7
 320              	.LVL14:
  16:FXObjects/LBFX.cpp **** 	stateArray[x_z1] = wn;
 321              		.loc 10 16 2 is_stmt 1 view .LVU59
 322              		.loc 10 17 2 view .LVU60
  18:FXObjects/LBFX.cpp **** 
  19:FXObjects/LBFX.cpp **** 	return yn;
 323              		.loc 10 19 2 view .LVU61
  20:FXObjects/LBFX.cpp **** }
 324              		.loc 10 20 1 is_stmt 0 view .LVU62
 325 003c A1EE020B 		vfma.f64	d0, d1, d2
 326              	.LVL15:
 327              		.loc 10 20 1 view .LVU63
 328 0040 7047     		bx	lr
 329              		.cfi_endproc
 330              	.LFE2264:
 332 0042 00BF     		.section	.text._ZN8FatPunchD2Ev,"axG",%progbits,_ZN8FatPunchD5Ev,comdat
 333              		.align	1
 334              		.p2align 2,,3
 335              		.weak	_ZN8FatPunchD2Ev
 336              		.syntax unified
 337              		.thumb
 338              		.thumb_func
 339              		.fpu fpv5-d16
 341              	_ZN8FatPunchD2Ev:
 342              	.LVL16:
 343              	.LFB4532:
 344              		.file 11 "FXObjects/BassPedalFX.h"
   1:FXObjects/BassPedalFX.h **** #pragma once
   2:FXObjects/BassPedalFX.h **** 
   3:FXObjects/BassPedalFX.h **** #include "LBFX.h"
   4:FXObjects/BassPedalFX.h **** #include "../BassPedalFunctions.h"
   5:FXObjects/BassPedalFX.h **** 
   6:FXObjects/BassPedalFX.h **** struct FatPunchParameters {
   7:FXObjects/BassPedalFX.h **** 	FatPunchParameters() {}
   8:FXObjects/BassPedalFX.h **** 
   9:FXObjects/BassPedalFX.h **** 	FatPunchParameters& operator=(const FatPunchParameters& params) {
  10:FXObjects/BassPedalFX.h **** 
  11:FXObjects/BassPedalFX.h **** 		//WHEN ADDING PARAM: add to both parts of this function, 
  12:FXObjects/BassPedalFX.h **** 		//AND The setParameters function of the class
  13:FXObjects/BassPedalFX.h **** 		if (this == &params)
  14:FXObjects/BassPedalFX.h **** 			return *this;
  15:FXObjects/BassPedalFX.h **** 		/* [parameter] = params.[parameter]; */
  16:FXObjects/BassPedalFX.h **** 
  17:FXObjects/BassPedalFX.h **** 		inDistAmt = params.inDistAmt;
  18:FXObjects/BassPedalFX.h **** 		punchCompOn = params.punchCompOn;
  19:FXObjects/BassPedalFX.h **** 		fatOn = params.fatOn;
  20:FXObjects/BassPedalFX.h **** 		darkenOn = params.darkenOn;
  21:FXObjects/BassPedalFX.h **** 
  22:FXObjects/BassPedalFX.h **** 		return *this;
  23:FXObjects/BassPedalFX.h **** 	}
ARM GAS  C:\Users\guita\AppData\Local\Temp\ccRE0rrt.s 			page 22


  24:FXObjects/BassPedalFX.h **** 
  25:FXObjects/BassPedalFX.h **** 	float inDistAmt = 1.0;
  26:FXObjects/BassPedalFX.h **** 	bool punchCompOn = true;
  27:FXObjects/BassPedalFX.h **** 	bool fatOn = true;
  28:FXObjects/BassPedalFX.h **** 	bool darkenOn = true;
  29:FXObjects/BassPedalFX.h **** };
  30:FXObjects/BassPedalFX.h **** struct MelodyModeParameters {
  31:FXObjects/BassPedalFX.h **** 	MelodyModeParameters() {}
  32:FXObjects/BassPedalFX.h **** 
  33:FXObjects/BassPedalFX.h **** 	MelodyModeParameters& operator=(const MelodyModeParameters& params) {
  34:FXObjects/BassPedalFX.h **** 		if (this == &params) return *this;
  35:FXObjects/BassPedalFX.h **** 		on = params.on;
  36:FXObjects/BassPedalFX.h **** 		return *this;
  37:FXObjects/BassPedalFX.h **** 	}
  38:FXObjects/BassPedalFX.h **** 
  39:FXObjects/BassPedalFX.h **** 	bool on = false;
  40:FXObjects/BassPedalFX.h **** };
  41:FXObjects/BassPedalFX.h **** /*
  42:FXObjects/BassPedalFX.h **** 
  43:FXObjects/BassPedalFX.h **** Object for "fat/punchy" sound for low bass rhythm
  44:FXObjects/BassPedalFX.h **** 
  45:FXObjects/BassPedalFX.h **** By: Lucas Burkholder
  46:FXObjects/BassPedalFX.h **** 
  47:FXObjects/BassPedalFX.h **** */
  48:FXObjects/BassPedalFX.h **** 
  49:FXObjects/BassPedalFX.h **** class FatPunch {
  50:FXObjects/BassPedalFX.h **** public:
  51:FXObjects/BassPedalFX.h **** 	FatPunch() {}
  52:FXObjects/BassPedalFX.h **** 	~FatPunch() {}
 345              		.loc 11 52 2 is_stmt 1 view -0
 346              		.cfi_startproc
 347              		@ args = 0, pretend = 0, frame = 0
 348              		@ frame_needed = 0, uses_anonymous_args = 0
 349              		@ link register save eliminated.
 350              	.LBB318:
 351              	.LBI318:
 386:FXObjects/LBFX.h **** 
 352              		.loc 9 386 2 view .LVU65
 353              	.LBB319:
 354              	.LBI319:
 303:FXObjects/LBFX.h **** 
 355              		.loc 9 303 2 view .LVU66
 303:FXObjects/LBFX.h **** 
 356              		.loc 9 303 2 is_stmt 0 view .LVU67
 357              	.LBE319:
 358              	.LBE318:
 359              	.LBB320:
 360              	.LBI320:
 261:FXObjects/LBFX.h **** 
 361              		.loc 9 261 2 is_stmt 1 view .LVU68
 362              	.LBB321:
 363              	.LBI321:
  54:FXObjects/LBFX.h **** 
 364              		.loc 9 54 2 view .LVU69
  54:FXObjects/LBFX.h **** 
 365              		.loc 9 54 2 is_stmt 0 view .LVU70
 366              	.LBE321:
ARM GAS  C:\Users\guita\AppData\Local\Temp\ccRE0rrt.s 			page 23


 367              	.LBE320:
 368              	.LBB322:
 369              	.LBI322:
 215:FXObjects/LBFX.h **** 
 370              		.loc 9 215 2 is_stmt 1 view .LVU71
 371              	.LBB323:
 372              	.LBI323:
  54:FXObjects/LBFX.h **** 
 373              		.loc 9 54 2 view .LVU72
  54:FXObjects/LBFX.h **** 
 374              		.loc 9 54 2 is_stmt 0 view .LVU73
 375              	.LBE323:
 376              	.LBE322:
 377              		.loc 11 52 15 view .LVU74
 378 0000 7047     		bx	lr
 379              		.cfi_endproc
 380              	.LFE4532:
 382              		.weak	_ZN8FatPunchD1Ev
 383              		.thumb_set _ZN8FatPunchD1Ev,_ZN8FatPunchD2Ev
 384 0002 00BF     		.section	.text._ZN8FatPunch20canProcessAudioFrameEv,"axG",%progbits,_ZN8FatPunch20canProcessAudioF
 385              		.align	1
 386              		.p2align 2,,3
 387              		.weak	_ZN8FatPunch20canProcessAudioFrameEv
 388              		.syntax unified
 389              		.thumb
 390              		.thumb_func
 391              		.fpu fpv5-d16
 393              	_ZN8FatPunch20canProcessAudioFrameEv:
 394              	.LVL17:
 395              	.LFB4536:
  53:FXObjects/BassPedalFX.h **** 
  54:FXObjects/BassPedalFX.h ****  	virtual bool reset(double _sampleRate) {
  55:FXObjects/BassPedalFX.h **** 		lpeq.reset(_sampleRate);
  56:FXObjects/BassPedalFX.h **** 		hsf.reset(_sampleRate);
  57:FXObjects/BassPedalFX.h **** 		compressor.reset(_sampleRate);
  58:FXObjects/BassPedalFX.h **** 		return true;
  59:FXObjects/BassPedalFX.h **** 	}
  60:FXObjects/BassPedalFX.h **** 
  61:FXObjects/BassPedalFX.h **** 	virtual double processAudioSample(double xn) {
  62:FXObjects/BassPedalFX.h **** 		// Step 1 - Distortion
  63:FXObjects/BassPedalFX.h **** 		if (parameters.fatOn)
  64:FXObjects/BassPedalFX.h **** 			xn = tanhWaveShaper(xn, parameters.inDistAmt); //distAmt goes 0.01-10
  65:FXObjects/BassPedalFX.h **** 		// Step 2 - EQ
  66:FXObjects/BassPedalFX.h **** 		if (parameters.fatOn) {
  67:FXObjects/BassPedalFX.h **** 			xn *= dB2Raw(-6.0);
  68:FXObjects/BassPedalFX.h **** 			xn = lpeq.processAudioSample(xn);
  69:FXObjects/BassPedalFX.h **** 		
  70:FXObjects/BassPedalFX.h **** 		}
  71:FXObjects/BassPedalFX.h **** 		if (parameters.darkenOn)
  72:FXObjects/BassPedalFX.h **** 			xn = hsf.processAudioSample(xn);
  73:FXObjects/BassPedalFX.h **** 
  74:FXObjects/BassPedalFX.h **** 		// Step 3 - Compression
  75:FXObjects/BassPedalFX.h **** 		if (parameters.punchCompOn)
  76:FXObjects/BassPedalFX.h **** 			xn = compressor.processAudioSample(xn);
  77:FXObjects/BassPedalFX.h **** 
  78:FXObjects/BassPedalFX.h **** 		return xn;
  79:FXObjects/BassPedalFX.h **** 		//left to right: fat, dark, punch, melody
ARM GAS  C:\Users\guita\AppData\Local\Temp\ccRE0rrt.s 			page 24


  80:FXObjects/BassPedalFX.h **** 	}
  81:FXObjects/BassPedalFX.h **** 
  82:FXObjects/BassPedalFX.h **** 	virtual bool canProcessAudioFrame() {
 396              		.loc 11 82 15 is_stmt 1 view -0
 397              		.cfi_startproc
 398              		@ args = 0, pretend = 0, frame = 0
 399              		@ frame_needed = 0, uses_anonymous_args = 0
 400              		@ link register save eliminated.
  83:FXObjects/BassPedalFX.h **** 		return false;
 401              		.loc 11 83 3 view .LVU76
  84:FXObjects/BassPedalFX.h **** 	}
 402              		.loc 11 84 2 is_stmt 0 view .LVU77
 403 0000 0020     		movs	r0, #0
 404              	.LVL18:
 405              		.loc 11 84 2 view .LVU78
 406 0002 7047     		bx	lr
 407              		.cfi_endproc
 408              	.LFE4536:
 410              		.section	.text._ZN10MelodyModeD2Ev,"axG",%progbits,_ZN10MelodyModeD5Ev,comdat
 411              		.align	1
 412              		.p2align 2,,3
 413              		.weak	_ZN10MelodyModeD2Ev
 414              		.syntax unified
 415              		.thumb
 416              		.thumb_func
 417              		.fpu fpv5-d16
 419              	_ZN10MelodyModeD2Ev:
 420              	.LVL19:
 421              	.LFB4543:
  85:FXObjects/BassPedalFX.h **** 
  86:FXObjects/BassPedalFX.h **** 	FatPunchParameters getParameters() {
  87:FXObjects/BassPedalFX.h **** 		return parameters;
  88:FXObjects/BassPedalFX.h **** 	}
  89:FXObjects/BassPedalFX.h **** 
  90:FXObjects/BassPedalFX.h **** 	void setParameters(const FatPunchParameters& _parameters) {
  91:FXObjects/BassPedalFX.h **** 		if (parameters.inDistAmt != _parameters.inDistAmt 
  92:FXObjects/BassPedalFX.h **** 			|| parameters.punchCompOn != _parameters.punchCompOn
  93:FXObjects/BassPedalFX.h **** 			|| parameters.fatOn != _parameters.fatOn
  94:FXObjects/BassPedalFX.h **** 			|| parameters.darkenOn != _parameters.darkenOn ) {
  95:FXObjects/BassPedalFX.h **** 			parameters = _parameters;
  96:FXObjects/BassPedalFX.h **** 		}
  97:FXObjects/BassPedalFX.h **** 		else return;
  98:FXObjects/BassPedalFX.h **** 
  99:FXObjects/BassPedalFX.h **** 		//clamp any parameter values here (like Q >= 0)
 100:FXObjects/BassPedalFX.h **** 		if (parameters.inDistAmt == 0) parameters.inDistAmt = 0.01;
 101:FXObjects/BassPedalFX.h **** 
 102:FXObjects/BassPedalFX.h **** 		//update sub-object parameters here
 103:FXObjects/BassPedalFX.h **** 		LB_PEQParameters lpeqParams = lpeq.getParameters();
 104:FXObjects/BassPedalFX.h **** 		lpeqParams.fc = 100; //was 75
 105:FXObjects/BassPedalFX.h **** 		lpeqParams.gain = 8.0;
 106:FXObjects/BassPedalFX.h **** 		lpeqParams.Q = 0.4;
 107:FXObjects/BassPedalFX.h **** 		lpeq.setParameters(lpeqParams);
 108:FXObjects/BassPedalFX.h **** 
 109:FXObjects/BassPedalFX.h **** 		LB_HSFParameters hsfParams = hsf.getParameters();
 110:FXObjects/BassPedalFX.h **** 		hsfParams.fc = 700.0;
 111:FXObjects/BassPedalFX.h **** 		hsfParams.gain = -14.0;
 112:FXObjects/BassPedalFX.h **** 		hsf.setParameters(hsfParams);
ARM GAS  C:\Users\guita\AppData\Local\Temp\ccRE0rrt.s 			page 25


 113:FXObjects/BassPedalFX.h **** 
 114:FXObjects/BassPedalFX.h **** 		LB_CompressorParameters compressorParams = compressor.getParameters();
 115:FXObjects/BassPedalFX.h **** 		compressorParams.attackTime = 150.0;
 116:FXObjects/BassPedalFX.h **** 		compressorParams.releaseTime = 20.0;
 117:FXObjects/BassPedalFX.h **** 		compressorParams.ratio = 3.0;
 118:FXObjects/BassPedalFX.h **** 		compressorParams.threshold_dB = -42.0; //39.1 //assumes peaking around -5 -10dB
 119:FXObjects/BassPedalFX.h **** 		compressorParams.outputGain = 3.0;
 120:FXObjects/BassPedalFX.h **** 		compressor.setParameters(compressorParams);
 121:FXObjects/BassPedalFX.h **** 
 122:FXObjects/BassPedalFX.h **** 		//update filter coefficients here? 
 123:FXObjects/BassPedalFX.h **** 		//don't have to bc [filter].setParameters() does it
 124:FXObjects/BassPedalFX.h **** 	}
 125:FXObjects/BassPedalFX.h **** 
 126:FXObjects/BassPedalFX.h **** protected:
 127:FXObjects/BassPedalFX.h **** 	FatPunchParameters parameters;
 128:FXObjects/BassPedalFX.h **** 
 129:FXObjects/BassPedalFX.h **** 	LB_PEQ lpeq;
 130:FXObjects/BassPedalFX.h **** 	LB_HSF hsf;
 131:FXObjects/BassPedalFX.h **** 
 132:FXObjects/BassPedalFX.h **** 	LB_Compressor compressor;
 133:FXObjects/BassPedalFX.h **** };
 134:FXObjects/BassPedalFX.h **** 
 135:FXObjects/BassPedalFX.h **** class MelodyMode {
 136:FXObjects/BassPedalFX.h **** public:
 137:FXObjects/BassPedalFX.h **** 	MelodyMode() {}
 138:FXObjects/BassPedalFX.h **** 	~MelodyMode() {}
 422              		.loc 11 138 2 is_stmt 1 view -0
 423              		.cfi_startproc
 424              		@ args = 0, pretend = 0, frame = 0
 425              		@ frame_needed = 0, uses_anonymous_args = 0
 426              		@ link register save eliminated.
 427              	.LBB324:
 428              	.LBI324:
 215:FXObjects/LBFX.h **** 
 429              		.loc 9 215 2 view .LVU80
 430              	.LBB325:
 431              	.LBI325:
  54:FXObjects/LBFX.h **** 
 432              		.loc 9 54 2 view .LVU81
  54:FXObjects/LBFX.h **** 
 433              		.loc 9 54 2 is_stmt 0 view .LVU82
 434              	.LBE325:
 435              	.LBE324:
 436              	.LBB326:
 437              	.LBI326:
 215:FXObjects/LBFX.h **** 
 438              		.loc 9 215 2 is_stmt 1 view .LVU83
 439              	.LBB327:
 440              	.LBI327:
  54:FXObjects/LBFX.h **** 
 441              		.loc 9 54 2 view .LVU84
  54:FXObjects/LBFX.h **** 
 442              		.loc 9 54 2 is_stmt 0 view .LVU85
 443              	.LBE327:
 444              	.LBE326:
 445              		.loc 11 138 17 view .LVU86
 446 0000 7047     		bx	lr
ARM GAS  C:\Users\guita\AppData\Local\Temp\ccRE0rrt.s 			page 26


 447              		.cfi_endproc
 448              	.LFE4543:
 450              		.weak	_ZN10MelodyModeD1Ev
 451              		.thumb_set _ZN10MelodyModeD1Ev,_ZN10MelodyModeD2Ev
 452 0002 00BF     		.section	.text._ZN10MelodyMode20canProcessAudioFrameEv,"axG",%progbits,_ZN10MelodyMode20canProcess
 453              		.align	1
 454              		.p2align 2,,3
 455              		.weak	_ZN10MelodyMode20canProcessAudioFrameEv
 456              		.syntax unified
 457              		.thumb
 458              		.thumb_func
 459              		.fpu fpv5-d16
 461              	_ZN10MelodyMode20canProcessAudioFrameEv:
 462              	.LVL20:
 463              	.LFB4547:
 139:FXObjects/BassPedalFX.h **** 	virtual bool reset(double sampleRate) {
 140:FXObjects/BassPedalFX.h **** 		//reset all member fx objects here
 141:FXObjects/BassPedalFX.h **** 		midEQ.reset(sampleRate);
 142:FXObjects/BassPedalFX.h **** 		hiEQ.reset(sampleRate);
 143:FXObjects/BassPedalFX.h **** 		return true;
 144:FXObjects/BassPedalFX.h **** 	}
 145:FXObjects/BassPedalFX.h **** 
 146:FXObjects/BassPedalFX.h **** 	virtual double processAudioSample(double xn) {
 147:FXObjects/BassPedalFX.h **** 		//processing here
 148:FXObjects/BassPedalFX.h **** 		//this ASSUMES input signal is within ideal range of -40dB to -25dB
 149:FXObjects/BassPedalFX.h **** 		//	when testing, set input gain to -4dB to get this range
 150:FXObjects/BassPedalFX.h **** 
 151:FXObjects/BassPedalFX.h **** 		if (!parameters.on) return xn;
 152:FXObjects/BassPedalFX.h **** 
 153:FXObjects/BassPedalFX.h **** 		// Distortion/Saturation
 154:FXObjects/BassPedalFX.h **** 		double yn = waveShaper(xn);
 155:FXObjects/BassPedalFX.h **** 
 156:FXObjects/BassPedalFX.h **** 		// EQ mid
 157:FXObjects/BassPedalFX.h **** 		yn = midEQ.processAudioSample(yn);
 158:FXObjects/BassPedalFX.h **** 
 159:FXObjects/BassPedalFX.h **** 		// Attenuate to make up for distortion boosts
 160:FXObjects/BassPedalFX.h **** 		yn *= 0.3;
 161:FXObjects/BassPedalFX.h **** 
 162:FXObjects/BassPedalFX.h **** 		// EQ high
 163:FXObjects/BassPedalFX.h **** 		yn = hiEQ.processAudioSample(yn);
 164:FXObjects/BassPedalFX.h **** 
 165:FXObjects/BassPedalFX.h **** 		
 166:FXObjects/BassPedalFX.h **** 		// Output
 167:FXObjects/BassPedalFX.h **** 		return yn;
 168:FXObjects/BassPedalFX.h **** 	}
 169:FXObjects/BassPedalFX.h **** 
 170:FXObjects/BassPedalFX.h **** 	virtual bool canProcessAudioFrame() { return false; }
 464              		.loc 11 170 15 is_stmt 1 view -0
 465              		.cfi_startproc
 466              		@ args = 0, pretend = 0, frame = 0
 467              		@ frame_needed = 0, uses_anonymous_args = 0
 468              		@ link register save eliminated.
 469              		.loc 11 170 40 view .LVU88
 470              		.loc 11 170 54 is_stmt 0 view .LVU89
 471 0000 0020     		movs	r0, #0
 472              	.LVL21:
 473              		.loc 11 170 54 view .LVU90
ARM GAS  C:\Users\guita\AppData\Local\Temp\ccRE0rrt.s 			page 27


 474 0002 7047     		bx	lr
 475              		.cfi_endproc
 476              	.LFE4547:
 478              		.section	.text._ZN10MelodyMode5resetEd,"axG",%progbits,_ZN10MelodyMode5resetEd,comdat
 479              		.align	1
 480              		.p2align 2,,3
 481              		.weak	_ZN10MelodyMode5resetEd
 482              		.syntax unified
 483              		.thumb
 484              		.thumb_func
 485              		.fpu fpv5-d16
 487              	_ZN10MelodyMode5resetEd:
 488              	.LVL22:
 489              	.LFB4545:
 139:FXObjects/BassPedalFX.h **** 	virtual bool reset(double sampleRate) {
 490              		.loc 11 139 15 is_stmt 1 view -0
 491              		.cfi_startproc
 492              		@ args = 0, pretend = 0, frame = 0
 493              		@ frame_needed = 0, uses_anonymous_args = 0
 139:FXObjects/BassPedalFX.h **** 	virtual bool reset(double sampleRate) {
 494              		.loc 11 139 15 is_stmt 0 view .LVU92
 495 0000 10B5     		push	{r4, lr}
 496              		.cfi_def_cfa_offset 8
 497              		.cfi_offset 4, -8
 498              		.cfi_offset 14, -4
 499 0002 0446     		mov	r4, r0
 500              	.LBB328:
 501              	.LBB329:
 502              	.LBB330:
 503              	.LBB331:
  57:FXObjects/LBFX.h **** 		return true;
 504              		.loc 9 57 9 view .LVU93
 505 0004 2022     		movs	r2, #32
 506 0006 0021     		movs	r1, #0
 507 0008 4830     		adds	r0, r0, #72
 508              	.LVL23:
  57:FXObjects/LBFX.h **** 		return true;
 509              		.loc 9 57 9 view .LVU94
 510              	.LBE331:
 511              	.LBE330:
 512              	.LBE329:
 513              	.LBE328:
 139:FXObjects/BassPedalFX.h **** 	virtual bool reset(double sampleRate) {
 514              		.loc 11 139 15 view .LVU95
 515 000a 2DED028B 		vpush.64	{d8}
 516              		.cfi_def_cfa_offset 16
 517              		.cfi_offset 80, -16
 518              		.cfi_offset 81, -12
 139:FXObjects/BassPedalFX.h **** 	virtual bool reset(double sampleRate) {
 519              		.loc 11 139 15 view .LVU96
 520 000e B0EE408B 		vmov.f64	d8, d0
 141:FXObjects/BassPedalFX.h **** 		hiEQ.reset(sampleRate);
 521              		.loc 11 141 3 is_stmt 1 view .LVU97
 522              	.LVL24:
 523              	.LBB335:
 524              	.LBI328:
 233:FXObjects/LBFX.h **** 		sampleRate = _sampleRate;
ARM GAS  C:\Users\guita\AppData\Local\Temp\ccRE0rrt.s 			page 28


 525              		.loc 9 233 7 view .LVU98
 526              	.LBB334:
 234:FXObjects/LBFX.h **** 		return biquad.reset(sampleRate);
 527              		.loc 9 234 3 view .LVU99
 234:FXObjects/LBFX.h **** 		return biquad.reset(sampleRate);
 528              		.loc 9 234 14 is_stmt 0 view .LVU100
 529 0012 84ED2E0B 		vstr.64	d0, [r4, #184]
 235:FXObjects/LBFX.h **** 	}
 530              		.loc 9 235 3 is_stmt 1 view .LVU101
 531              	.LVL25:
 532              	.LBB333:
 533              	.LBI330:
  56:FXObjects/LBFX.h **** 		memset(&stateArray[0], 0, sizeof(double) * numStates);
 534              		.loc 9 56 7 view .LVU102
 535              	.LBB332:
  57:FXObjects/LBFX.h **** 		return true;
 536              		.loc 9 57 3 view .LVU103
  57:FXObjects/LBFX.h **** 		return true;
 537              		.loc 9 57 9 is_stmt 0 view .LVU104
 538 0016 FFF7FEFF 		bl	memset
 539              	.LVL26:
  58:FXObjects/LBFX.h **** 	}
 540              		.loc 9 58 3 is_stmt 1 view .LVU105
  58:FXObjects/LBFX.h **** 	}
 541              		.loc 9 58 3 is_stmt 0 view .LVU106
 542              	.LBE332:
 543              	.LBE333:
 544              	.LBE334:
 545              	.LBE335:
 142:FXObjects/BassPedalFX.h **** 		return true;
 546              		.loc 11 142 3 is_stmt 1 view .LVU107
 547              	.LBB336:
 548              	.LBI336:
 233:FXObjects/LBFX.h **** 		sampleRate = _sampleRate;
 549              		.loc 9 233 7 view .LVU108
 550              	.LBB337:
 234:FXObjects/LBFX.h **** 		return biquad.reset(sampleRate);
 551              		.loc 9 234 3 view .LVU109
 552              	.LBB338:
 553              	.LBB339:
  57:FXObjects/LBFX.h **** 		return true;
 554              		.loc 9 57 9 is_stmt 0 view .LVU110
 555 001a 2022     		movs	r2, #32
 556 001c 0021     		movs	r1, #0
 557 001e 04F58070 		add	r0, r4, #256
 558              	.LBE339:
 559              	.LBE338:
 234:FXObjects/LBFX.h **** 		return biquad.reset(sampleRate);
 560              		.loc 9 234 14 view .LVU111
 561 0022 84ED5C8B 		vstr.64	d8, [r4, #368]
 235:FXObjects/LBFX.h **** 	}
 562              		.loc 9 235 3 is_stmt 1 view .LVU112
 563              	.LVL27:
 564              	.LBB341:
 565              	.LBI338:
  56:FXObjects/LBFX.h **** 		memset(&stateArray[0], 0, sizeof(double) * numStates);
 566              		.loc 9 56 7 view .LVU113
ARM GAS  C:\Users\guita\AppData\Local\Temp\ccRE0rrt.s 			page 29


 567              	.LBB340:
  57:FXObjects/LBFX.h **** 		return true;
 568              		.loc 9 57 3 view .LVU114
  57:FXObjects/LBFX.h **** 		return true;
 569              		.loc 9 57 9 is_stmt 0 view .LVU115
 570 0026 FFF7FEFF 		bl	memset
 571              	.LVL28:
  58:FXObjects/LBFX.h **** 	}
 572              		.loc 9 58 3 is_stmt 1 view .LVU116
  58:FXObjects/LBFX.h **** 	}
 573              		.loc 9 58 3 is_stmt 0 view .LVU117
 574              	.LBE340:
 575              	.LBE341:
 576              	.LBE337:
 577              	.LBE336:
 143:FXObjects/BassPedalFX.h **** 	}
 578              		.loc 11 143 3 is_stmt 1 view .LVU118
 144:FXObjects/BassPedalFX.h **** 
 579              		.loc 11 144 2 is_stmt 0 view .LVU119
 580 002a 0120     		movs	r0, #1
 581 002c BDEC028B 		vldm	sp!, {d8}
 582              		.cfi_restore 80
 583              		.cfi_restore 81
 584              		.cfi_def_cfa_offset 8
 585              	.LVL29:
 144:FXObjects/BassPedalFX.h **** 
 586              		.loc 11 144 2 view .LVU120
 587 0030 10BD     		pop	{r4, pc}
 144:FXObjects/BassPedalFX.h **** 
 588              		.loc 11 144 2 view .LVU121
 589              		.cfi_endproc
 590              	.LFE4545:
 592 0032 00BF     		.section	.text._ZN14LB_EnvDetector18processAudioSampleEd,"axG",%progbits,_ZN14LB_EnvDetector18proc
 593              		.align	1
 594              		.p2align 2,,3
 595              		.weak	_ZN14LB_EnvDetector18processAudioSampleEd
 596              		.syntax unified
 597              		.thumb
 598              		.thumb_func
 599              		.fpu fpv5-d16
 601              	_ZN14LB_EnvDetector18processAudioSampleEd:
 602              	.LVL30:
 603              	.LFB2246:
 322:FXObjects/LBFX.h **** 		//full wave rectification
 604              		.loc 9 322 17 is_stmt 1 view -0
 605              		.cfi_startproc
 606              		@ args = 0, pretend = 0, frame = 0
 607              		@ frame_needed = 0, uses_anonymous_args = 0
 324:FXObjects/LBFX.h **** 
 608              		.loc 9 324 3 view .LVU123
 327:FXObjects/LBFX.h **** 
 609              		.loc 9 327 3 view .LVU124
 327:FXObjects/LBFX.h **** 
 610              		.loc 9 327 9 is_stmt 0 view .LVU125
 611 0000 20EE000B 		vmul.f64	d0, d0, d0
 612              	.LVL31:
 329:FXObjects/LBFX.h **** 
ARM GAS  C:\Users\guita\AppData\Local\Temp\ccRE0rrt.s 			page 30


 613              		.loc 9 329 3 is_stmt 1 view .LVU126
 331:FXObjects/LBFX.h **** 			currEnvelope = attackTime * (lastEnvelope - input) + input;
 614              		.loc 9 331 3 view .LVU127
 331:FXObjects/LBFX.h **** 			currEnvelope = attackTime * (lastEnvelope - input) + input;
 615              		.loc 9 331 15 is_stmt 0 view .LVU128
 616 0004 90ED0E7B 		vldr.64	d7, [r0, #56]
 322:FXObjects/LBFX.h **** 		//full wave rectification
 617              		.loc 9 322 17 view .LVU129
 618 0008 10B5     		push	{r4, lr}
 619              		.cfi_def_cfa_offset 8
 620              		.cfi_offset 4, -8
 621              		.cfi_offset 14, -4
 331:FXObjects/LBFX.h **** 			currEnvelope = attackTime * (lastEnvelope - input) + input;
 622              		.loc 9 331 3 view .LVU130
 623 000a B4EEC07B 		vcmpe.f64	d7, d0
 322:FXObjects/LBFX.h **** 		//full wave rectification
 624              		.loc 9 322 17 view .LVU131
 625 000e 0446     		mov	r4, r0
 332:FXObjects/LBFX.h **** 		else
 626              		.loc 9 332 46 view .LVU132
 627 0010 37EE407B 		vsub.f64	d7, d7, d0
 331:FXObjects/LBFX.h **** 			currEnvelope = attackTime * (lastEnvelope - input) + input;
 628              		.loc 9 331 3 view .LVU133
 629 0014 F1EE10FA 		vmrs	APSR_nzcv, FPSCR
 630 0018 30D5     		bpl	.L33
 332:FXObjects/LBFX.h **** 		else
 631              		.loc 9 332 4 is_stmt 1 view .LVU134
 332:FXObjects/LBFX.h **** 		else
 632              		.loc 9 332 55 is_stmt 0 view .LVU135
 633 001a 90ED0A6B 		vldr.64	d6, [r0, #40]
 634 001e A6EE070B 		vfma.f64	d0, d6, d7
 635              	.LVL32:
 636              	.L20:
 336:FXObjects/LBFX.h **** 
 637              		.loc 9 336 3 is_stmt 1 view .LVU136
 638              	.LBB344:
 639              	.LBI344:
  26:FXObjects/LBFX.h **** {
 640              		.loc 9 26 13 view .LVU137
 641              	.LBB345:
  28:FXObjects/LBFX.h **** 	if (value > 0.0 && value < kSmallestPositiveFloatValue)
 642              		.loc 9 28 2 view .LVU138
  29:FXObjects/LBFX.h **** 	{
 643              		.loc 9 29 2 view .LVU139
 644 0022 B5EEC00B 		vcmpe.f64	d0, #0
 645 0026 F1EE10FA 		vmrs	APSR_nzcv, FPSCR
 646 002a 09DD     		ble	.L21
  29:FXObjects/LBFX.h **** 	{
 647              		.loc 9 29 18 is_stmt 0 view .LVU140
 648 002c 9FED1A7B 		vldr.64	d7, .L36
 649 0030 B4EEC70B 		vcmpe.f64	d0, d7
 650 0034 F1EE10FA 		vmrs	APSR_nzcv, FPSCR
 651 0038 02D5     		bpl	.L21
 652 003a 9FED197B 		vldr.64	d7, .L36+8
 653 003e 08E0     		b	.L23
 654              	.L21:
  34:FXObjects/LBFX.h **** 	{
ARM GAS  C:\Users\guita\AppData\Local\Temp\ccRE0rrt.s 			page 31


 655              		.loc 9 34 7 is_stmt 1 view .LVU141
 656 0040 9FED177B 		vldr.64	d7, .L36+8
 657 0044 B4EEC70B 		vcmpe.f64	d0, d7
 658 0048 F1EE10FA 		vmrs	APSR_nzcv, FPSCR
 659 004c 1BD4     		bmi	.L24
 660              	.L35:
 661              	.LBE345:
 662              	.LBE344:
 340:FXObjects/LBFX.h **** 
 663              		.loc 9 340 22 is_stmt 0 view .LVU142
 664 004e 80FE077B 		vmaxnm.f64	d7, d0, d7
 665              	.L23:
 666              	.LVL33:
 667              	.LBB348:
 668              	.LBB346:
  39:FXObjects/LBFX.h **** }
 669              		.loc 9 39 2 is_stmt 1 view .LVU143
  39:FXObjects/LBFX.h **** }
 670              		.loc 9 39 2 is_stmt 0 view .LVU144
 671              	.LBE346:
 672              	.LBE348:
 340:FXObjects/LBFX.h **** 
 673              		.loc 9 340 3 is_stmt 1 view .LVU145
 342:FXObjects/LBFX.h **** 
 674              		.loc 9 342 3 view .LVU146
 345:FXObjects/LBFX.h **** 
 675              		.loc 9 345 21 is_stmt 0 view .LVU147
 676 0052 B0EE470B 		vmov.f64	d0, d7
 677 0056 B6EE001B 		vmov.f64	d1, #5.0e-1
 342:FXObjects/LBFX.h **** 
 678              		.loc 9 342 16 view .LVU148
 679 005a 84ED0E7B 		vstr.64	d7, [r4, #56]
 345:FXObjects/LBFX.h **** 
 680              		.loc 9 345 3 is_stmt 1 view .LVU149
 345:FXObjects/LBFX.h **** 
 681              		.loc 9 345 21 is_stmt 0 view .LVU150
 682 005e FFF7FEFF 		bl	pow
 683              	.LVL34:
 347:FXObjects/LBFX.h **** 
 684              		.loc 9 347 3 view .LVU151
 685 0062 237E     		ldrb	r3, [r4, #24]	@ zero_extendqisi2
 686              	.LVL35:
 347:FXObjects/LBFX.h **** 
 687              		.loc 9 347 3 is_stmt 1 view .LVU152
 345:FXObjects/LBFX.h **** 
 688              		.loc 9 345 21 is_stmt 0 view .LVU153
 689 0064 B0EE407B 		vmov.f64	d7, d0
 347:FXObjects/LBFX.h **** 
 690              		.loc 9 347 3 view .LVU154
 691 0068 2BB1     		cbz	r3, .L17
 349:FXObjects/LBFX.h **** 	}
 692              		.loc 9 349 3 is_stmt 1 view .LVU155
 349:FXObjects/LBFX.h **** 	}
 693              		.loc 9 349 22 is_stmt 0 view .LVU156
 694 006a FFF7FEFF 		bl	log10
 695              	.LVL36:
 349:FXObjects/LBFX.h **** 	}
ARM GAS  C:\Users\guita\AppData\Local\Temp\ccRE0rrt.s 			page 32


 696              		.loc 9 349 35 view .LVU157
 697 006e B3EE047B 		vmov.f64	d7, #2.0e+1
 698 0072 20EE077B 		vmul.f64	d7, d0, d7
 699              	.L17:
 350:FXObjects/LBFX.h **** 
 700              		.loc 9 350 2 view .LVU158
 701 0076 B0EE470B 		vmov.f64	d0, d7
 702 007a 10BD     		pop	{r4, pc}
 703              	.LVL37:
 704              	.L33:
 334:FXObjects/LBFX.h **** 
 705              		.loc 9 334 4 is_stmt 1 view .LVU159
 334:FXObjects/LBFX.h **** 
 706              		.loc 9 334 56 is_stmt 0 view .LVU160
 707 007c 90ED0C6B 		vldr.64	d6, [r0, #48]
 708 0080 A6EE070B 		vfma.f64	d0, d6, d7
 709              	.LVL38:
 334:FXObjects/LBFX.h **** 
 710              		.loc 9 334 56 view .LVU161
 711 0084 CDE7     		b	.L20
 712              	.LVL39:
 713              	.L24:
 714              	.LBB349:
 715              	.LBB347:
  34:FXObjects/LBFX.h **** 	{
 716              		.loc 9 34 23 view .LVU162
 717 0086 9FED086B 		vldr.64	d6, .L36+16
 718 008a B4EEC60B 		vcmpe.f64	d0, d6
 719 008e F1EE10FA 		vmrs	APSR_nzcv, FPSCR
 720 0092 DEDC     		bgt	.L23
 721 0094 DBE7     		b	.L35
 722              	.L37:
 723 0096 00BF     		.align	3
 724              	.L36:
 725 0098 9B630A00 		.word	680859
 726 009c 00001038 		.word	940572672
 727 00a0 00000000 		.word	0
 728 00a4 00000000 		.word	0
 729 00a8 9B630A00 		.word	680859
 730 00ac 000010B8 		.word	-1206910976
 731              	.LBE347:
 732              	.LBE349:
 733              		.cfi_endproc
 734              	.LFE2246:
 736              		.section	.text._ZN14LB_EnvDetector13setSampleRateEd,"axG",%progbits,_ZN14LB_EnvDetector13setSample
 737              		.align	1
 738              		.p2align 2,,3
 739              		.weak	_ZN14LB_EnvDetector13setSampleRateEd
 740              		.syntax unified
 741              		.thumb
 742              		.thumb_func
 743              		.fpu fpv5-d16
 745              	_ZN14LB_EnvDetector13setSampleRateEd:
 746              	.LVL40:
 747              	.LFB2247:
 352:FXObjects/LBFX.h **** 		if (sampleRate == _sampleRate) return;
 748              		.loc 9 352 15 is_stmt 1 view -0
ARM GAS  C:\Users\guita\AppData\Local\Temp\ccRE0rrt.s 			page 33


 749              		.cfi_startproc
 750              		@ args = 0, pretend = 0, frame = 0
 751              		@ frame_needed = 0, uses_anonymous_args = 0
 353:FXObjects/LBFX.h **** 		sampleRate = _sampleRate;
 752              		.loc 9 353 3 view .LVU164
 753 0000 90ED087B 		vldr.64	d7, [r0, #32]
 754 0004 B4EE407B 		vcmp.f64	d7, d0
 755 0008 F1EE10FA 		vmrs	APSR_nzcv, FPSCR
 756 000c 00D1     		bne	.L44
 757 000e 7047     		bx	lr
 758              	.L44:
 759              	.LVL41:
 760              	.LBB356:
 761              	.LBI356:
 352:FXObjects/LBFX.h **** 		if (sampleRate == _sampleRate) return;
 762              		.loc 9 352 15 view .LVU165
 763              	.LBB357:
 354:FXObjects/LBFX.h **** 
 764              		.loc 9 354 3 view .LVU166
 765              	.LBB358:
 766              	.LBB359:
 373:FXObjects/LBFX.h **** 	}
 767              		.loc 9 373 62 is_stmt 0 view .LVU167
 768 0010 90ED027B 		vldr.64	d7, [r0, #8]
 769              	.LBE359:
 770              	.LBE358:
 354:FXObjects/LBFX.h **** 
 771              		.loc 9 354 14 view .LVU168
 772 0014 80ED080B 		vstr.64	d0, [r0, #32]
 356:FXObjects/LBFX.h **** 		setReleaseTime(parameters.releaseTime, true);
 773              		.loc 9 356 3 is_stmt 1 view .LVU169
 774              	.LBE357:
 775              	.LBE356:
 352:FXObjects/LBFX.h **** 		if (sampleRate == _sampleRate) return;
 776              		.loc 9 352 15 is_stmt 0 view .LVU170
 777 0018 10B5     		push	{r4, lr}
 778              		.cfi_def_cfa_offset 8
 779              		.cfi_offset 4, -8
 780              		.cfi_offset 14, -4
 781              	.LBB376:
 782              	.LBB373:
 783              	.LBB364:
 784              	.LBB360:
 373:FXObjects/LBFX.h **** 	}
 785              		.loc 9 373 62 view .LVU171
 786 001a 20EE070B 		vmul.f64	d0, d0, d7
 787              	.LVL42:
 373:FXObjects/LBFX.h **** 	}
 788              		.loc 9 373 62 view .LVU172
 789 001e 0446     		mov	r4, r0
 790              	.LVL43:
 373:FXObjects/LBFX.h **** 	}
 791              		.loc 9 373 62 view .LVU173
 792              	.LBE360:
 793              	.LBI358:
 369:FXObjects/LBFX.h **** 		if (!forceCalc && parameters.attackTime == attack_ms) return;
 794              		.loc 9 369 7 is_stmt 1 view .LVU174
ARM GAS  C:\Users\guita\AppData\Local\Temp\ccRE0rrt.s 			page 34


 795              	.LBB361:
 370:FXObjects/LBFX.h **** 		parameters.attackTime = attack_ms;
 796              		.loc 9 370 3 view .LVU175
 371:FXObjects/LBFX.h **** 		//try this with -1?
 797              		.loc 9 371 3 view .LVU176
 373:FXObjects/LBFX.h **** 	}
 798              		.loc 9 373 3 view .LVU177
 799              	.LBE361:
 800              	.LBE364:
 801              	.LBE373:
 802              	.LBE376:
 352:FXObjects/LBFX.h **** 		if (sampleRate == _sampleRate) return;
 803              		.loc 9 352 15 is_stmt 0 view .LVU178
 804 0020 2DED048B 		vpush.64	{d8, d9}
 805              		.cfi_def_cfa_offset 24
 806              		.cfi_offset 80, -24
 807              		.cfi_offset 81, -20
 808              		.cfi_offset 82, -16
 809              		.cfi_offset 83, -12
 810              	.LBB377:
 811              	.LBB374:
 812              	.LBB365:
 813              	.LBB362:
 373:FXObjects/LBFX.h **** 	}
 814              		.loc 9 373 75 view .LVU179
 815 0024 9FED0E9B 		vldr.64	d9, .L45
 373:FXObjects/LBFX.h **** 	}
 816              		.loc 9 373 19 view .LVU180
 817 0028 9FED0F8B 		vldr.64	d8, .L45+8
 373:FXObjects/LBFX.h **** 	}
 818              		.loc 9 373 75 view .LVU181
 819 002c 20EE090B 		vmul.f64	d0, d0, d9
 373:FXObjects/LBFX.h **** 	}
 820              		.loc 9 373 19 view .LVU182
 821 0030 88EE000B 		vdiv.f64	d0, d8, d0
 822 0034 FFF7FEFF 		bl	exp
 823              	.LVL44:
 373:FXObjects/LBFX.h **** 	}
 824              		.loc 9 373 19 view .LVU183
 825              	.LBE362:
 826              	.LBE365:
 827              	.LBB366:
 828              	.LBB367:
 379:FXObjects/LBFX.h **** 	}
 829              		.loc 9 379 64 view .LVU184
 830 0038 94ED047B 		vldr.64	d7, [r4, #16]
 831 003c 94ED086B 		vldr.64	d6, [r4, #32]
 832              	.LBE367:
 833              	.LBE366:
 834              	.LBB370:
 835              	.LBB363:
 373:FXObjects/LBFX.h **** 	}
 836              		.loc 9 373 14 view .LVU185
 837 0040 84ED0A0B 		vstr.64	d0, [r4, #40]
 838              	.LVL45:
 373:FXObjects/LBFX.h **** 	}
 839              		.loc 9 373 14 view .LVU186
ARM GAS  C:\Users\guita\AppData\Local\Temp\ccRE0rrt.s 			page 35


 840              	.LBE363:
 841              	.LBE370:
 357:FXObjects/LBFX.h **** 	}
 842              		.loc 9 357 3 is_stmt 1 view .LVU187
 843              	.LBB371:
 844              	.LBI366:
 376:FXObjects/LBFX.h **** 		if (!forceCalc && parameters.releaseTime == release_ms) return;
 845              		.loc 9 376 7 view .LVU188
 846              	.LBB368:
 377:FXObjects/LBFX.h **** 		parameters.releaseTime = release_ms;
 847              		.loc 9 377 3 view .LVU189
 378:FXObjects/LBFX.h **** 		releaseTime = exp(TLD_AUDIO_ENVELOPE_ANALOG_TC / (release_ms * sampleRate * 0.001));
 848              		.loc 9 378 3 view .LVU190
 379:FXObjects/LBFX.h **** 	}
 849              		.loc 9 379 3 view .LVU191
 379:FXObjects/LBFX.h **** 	}
 850              		.loc 9 379 64 is_stmt 0 view .LVU192
 851 0044 27EE060B 		vmul.f64	d0, d7, d6
 379:FXObjects/LBFX.h **** 	}
 852              		.loc 9 379 77 view .LVU193
 853 0048 20EE090B 		vmul.f64	d0, d0, d9
 379:FXObjects/LBFX.h **** 	}
 854              		.loc 9 379 20 view .LVU194
 855 004c 88EE000B 		vdiv.f64	d0, d8, d0
 856 0050 FFF7FEFF 		bl	exp
 857              	.LVL46:
 379:FXObjects/LBFX.h **** 	}
 858              		.loc 9 379 20 view .LVU195
 859              	.LBE368:
 860              	.LBE371:
 861              	.LBE374:
 862              	.LBE377:
 358:FXObjects/LBFX.h **** 
 863              		.loc 9 358 2 view .LVU196
 864 0054 BDEC048B 		vldm	sp!, {d8-d9}
 865              		.cfi_restore 82
 866              		.cfi_restore 83
 867              		.cfi_restore 80
 868              		.cfi_restore 81
 869              		.cfi_def_cfa_offset 8
 870              	.LBB378:
 871              	.LBB375:
 872              	.LBB372:
 873              	.LBB369:
 379:FXObjects/LBFX.h **** 	}
 874              		.loc 9 379 15 view .LVU197
 875 0058 84ED0C0B 		vstr.64	d0, [r4, #48]
 876              	.LVL47:
 379:FXObjects/LBFX.h **** 	}
 877              		.loc 9 379 15 view .LVU198
 878              	.LBE369:
 879              	.LBE372:
 880              	.LBE375:
 881              	.LBE378:
 358:FXObjects/LBFX.h **** 
 882              		.loc 9 358 2 view .LVU199
 883 005c 10BD     		pop	{r4, pc}
ARM GAS  C:\Users\guita\AppData\Local\Temp\ccRE0rrt.s 			page 36


 884              	.LVL48:
 885              	.L46:
 358:FXObjects/LBFX.h **** 
 886              		.loc 9 358 2 view .LVU200
 887 005e 00BF     		.align	3
 888              	.L45:
 889 0060 FCA9F1D2 		.word	-755914244
 890 0064 4D62503F 		.word	1062232653
 891 0068 854550D9 		.word	-649050747
 892 006c 50FDEFBF 		.word	-1074791088
 893              		.cfi_endproc
 894              	.LFE2247:
 896              		.section	.text._ZN13LB_Compressor5resetEd,"axG",%progbits,_ZN13LB_Compressor5resetEd,comdat
 897              		.align	1
 898              		.p2align 2,,3
 899              		.weak	_ZN13LB_Compressor5resetEd
 900              		.syntax unified
 901              		.thumb
 902              		.thumb_func
 903              		.fpu fpv5-d16
 905              	_ZN13LB_Compressor5resetEd:
 906              	.LVL49:
 907              	.LFB2259:
 401:FXObjects/LBFX.h **** 		detector.reset(_sampleRate);
 908              		.loc 9 401 15 is_stmt 1 view -0
 909              		.cfi_startproc
 910              		@ args = 0, pretend = 0, frame = 0
 911              		@ frame_needed = 0, uses_anonymous_args = 0
 402:FXObjects/LBFX.h **** 		LB_EnvDetectorParameters detectorParams = detector.getParameters();
 912              		.loc 9 402 3 view .LVU202
 913              	.LBB395:
 914              	.LBB396:
 306:FXObjects/LBFX.h **** 	}
 915              		.loc 9 306 10 is_stmt 0 view .LVU203
 916 0000 90ED107B 		vldr.64	d7, [r0, #64]
 917              	.LBE396:
 918              	.LBE395:
 401:FXObjects/LBFX.h **** 		detector.reset(_sampleRate);
 919              		.loc 9 401 15 view .LVU204
 920 0004 38B5     		push	{r3, r4, r5, lr}
 921              		.cfi_def_cfa_offset 16
 922              		.cfi_offset 3, -16
 923              		.cfi_offset 4, -12
 924              		.cfi_offset 5, -8
 925              		.cfi_offset 14, -4
 926 0006 2DED068B 		vpush.64	{d8, d9, d10}
 927              		.cfi_def_cfa_offset 40
 928              		.cfi_offset 80, -40
 929              		.cfi_offset 81, -36
 930              		.cfi_offset 82, -32
 931              		.cfi_offset 83, -28
 932              		.cfi_offset 84, -24
 933              		.cfi_offset 85, -20
 934              	.LBB399:
 935              	.LBB400:
 317:FXObjects/LBFX.h **** 		lastEnvelope = 0.0;
 936              		.loc 9 317 14 view .LVU205
ARM GAS  C:\Users\guita\AppData\Local\Temp\ccRE0rrt.s 			page 37


 937 000a 80ED160B 		vstr.64	d0, [r0, #88]
 938              	.LBE400:
 939              	.LBE399:
 940              	.LBB404:
 941              	.LBB405:
 942              	.LBB406:
 373:FXObjects/LBFX.h **** 	}
 943              		.loc 9 373 62 view .LVU206
 944 000e 27EE000B 		vmul.f64	d0, d7, d0
 945              	.LVL50:
 373:FXObjects/LBFX.h **** 	}
 946              		.loc 9 373 62 view .LVU207
 947              	.LBE406:
 948              	.LBE405:
 949              	.LBE404:
 950              	.LBB427:
 951              	.LBB401:
 318:FXObjects/LBFX.h **** 		return true;
 952              		.loc 9 318 16 view .LVU208
 953 0012 0022     		movs	r2, #0
 954 0014 0023     		movs	r3, #0
 955              	.LBE401:
 956              	.LBE427:
 957              	.LBB428:
 958              	.LBB411:
 959              	.LBB412:
 154:FXObjects/LBFX.h **** 		return *this;
 960              		.loc 9 154 13 view .LVU209
 961 0016 0125     		movs	r5, #1
 962              	.LBE412:
 963              	.LBE411:
 964              	.LBE428:
 401:FXObjects/LBFX.h **** 		detector.reset(_sampleRate);
 965              		.loc 9 401 15 view .LVU210
 966 0018 0446     		mov	r4, r0
 967              	.LVL51:
 968              	.LBB429:
 969              	.LBI399:
 316:FXObjects/LBFX.h **** 		sampleRate = _sampleRate;
 970              		.loc 9 316 15 is_stmt 1 view .LVU211
 971              	.LBB402:
 317:FXObjects/LBFX.h **** 		lastEnvelope = 0.0;
 972              		.loc 9 317 3 view .LVU212
 318:FXObjects/LBFX.h **** 		return true;
 973              		.loc 9 318 3 view .LVU213
 974              	.LBE402:
 975              	.LBE429:
 976              	.LBB430:
 977              	.LBB415:
 978              	.LBB413:
 154:FXObjects/LBFX.h **** 		return *this;
 979              		.loc 9 154 13 is_stmt 0 view .LVU214
 980 001a 80F85050 		strb	r5, [r0, #80]
 981              	.LBE413:
 982              	.LBE415:
 983              	.LBB416:
 984              	.LBB407:
ARM GAS  C:\Users\guita\AppData\Local\Temp\ccRE0rrt.s 			page 38


 373:FXObjects/LBFX.h **** 	}
 985              		.loc 9 373 75 view .LVU215
 986 001e 9FED12AB 		vldr.64	d10, .L49
 373:FXObjects/LBFX.h **** 	}
 987              		.loc 9 373 19 view .LVU216
 988 0022 9FED139B 		vldr.64	d9, .L49+8
 989              	.LBE407:
 990              	.LBE416:
 991              	.LBE430:
 992              	.LBB431:
 993              	.LBB403:
 318:FXObjects/LBFX.h **** 		return true;
 994              		.loc 9 318 16 view .LVU217
 995 0026 C0E91C23 		strd	r2, [r0, #112]
 319:FXObjects/LBFX.h **** 	}
 996              		.loc 9 319 3 is_stmt 1 view .LVU218
 997              	.LVL52:
 319:FXObjects/LBFX.h **** 	}
 998              		.loc 9 319 3 is_stmt 0 view .LVU219
 999              	.LBE403:
 1000              	.LBE431:
 403:FXObjects/LBFX.h **** 		detectorParams.detect_dB = true;
 1001              		.loc 9 403 3 is_stmt 1 view .LVU220
 1002              	.LBB432:
 1003              	.LBI395:
 305:FXObjects/LBFX.h **** 		return parameters;
 1004              		.loc 9 305 27 view .LVU221
 1005              	.LBB397:
 306:FXObjects/LBFX.h **** 	}
 1006              		.loc 9 306 3 view .LVU222
 306:FXObjects/LBFX.h **** 	}
 1007              		.loc 9 306 3 is_stmt 0 view .LVU223
 1008              	.LBE397:
 1009              	.LBE432:
 1010              	.LBB433:
 1011              	.LBB417:
 1012              	.LBB408:
 373:FXObjects/LBFX.h **** 	}
 1013              		.loc 9 373 75 view .LVU224
 1014 002a 20EE0A0B 		vmul.f64	d0, d0, d10
 1015              	.LBE408:
 1016              	.LBE417:
 1017              	.LBE433:
 1018              	.LBB434:
 1019              	.LBB398:
 306:FXObjects/LBFX.h **** 	}
 1020              		.loc 9 306 10 view .LVU225
 1021 002e 90ED128B 		vldr.64	d8, [r0, #72]
 1022              	.LVL53:
 306:FXObjects/LBFX.h **** 	}
 1023              		.loc 9 306 10 view .LVU226
 1024              	.LBE398:
 1025              	.LBE434:
 404:FXObjects/LBFX.h **** 		detector.setParameters(detectorParams);
 1026              		.loc 9 404 3 is_stmt 1 view .LVU227
 405:FXObjects/LBFX.h **** 		return true;
 1027              		.loc 9 405 3 view .LVU228
ARM GAS  C:\Users\guita\AppData\Local\Temp\ccRE0rrt.s 			page 39


 1028              	.LBB435:
 1029              	.LBI404:
 309:FXObjects/LBFX.h **** 		parameters = _parameters;
 1030              		.loc 9 309 7 view .LVU229
 1031              	.LBE435:
 310:FXObjects/LBFX.h **** 
 1032              		.loc 9 310 3 view .LVU230
 1033              	.LBB436:
 1034              	.LBB418:
 1035              	.LBI411:
 150:FXObjects/LBFX.h **** 		if (this == &params) return *this;
 1036              		.loc 9 150 28 view .LVU231
 1037              	.LBB414:
 151:FXObjects/LBFX.h **** 		attackTime = params.attackTime;
 1038              		.loc 9 151 3 view .LVU232
 152:FXObjects/LBFX.h **** 		releaseTime = params.releaseTime;
 1039              		.loc 9 152 3 view .LVU233
 153:FXObjects/LBFX.h **** 		detect_dB = params.detect_dB;
 1040              		.loc 9 153 3 view .LVU234
 154:FXObjects/LBFX.h **** 		return *this;
 1041              		.loc 9 154 3 view .LVU235
 155:FXObjects/LBFX.h **** 	}
 1042              		.loc 9 155 3 view .LVU236
 155:FXObjects/LBFX.h **** 	}
 1043              		.loc 9 155 3 is_stmt 0 view .LVU237
 1044              	.LBE414:
 1045              	.LBE418:
 1046              	.LBE436:
 312:FXObjects/LBFX.h **** 		setReleaseTime(_parameters.releaseTime, true);
 1047              		.loc 9 312 3 is_stmt 1 view .LVU238
 1048              	.LBB437:
 1049              	.LBB419:
 1050              	.LBI405:
 369:FXObjects/LBFX.h **** 		if (!forceCalc && parameters.attackTime == attack_ms) return;
 1051              		.loc 9 369 7 view .LVU239
 1052              	.LBB409:
 370:FXObjects/LBFX.h **** 		parameters.attackTime = attack_ms;
 1053              		.loc 9 370 3 view .LVU240
 371:FXObjects/LBFX.h **** 		//try this with -1?
 1054              		.loc 9 371 3 view .LVU241
 373:FXObjects/LBFX.h **** 	}
 1055              		.loc 9 373 3 view .LVU242
 373:FXObjects/LBFX.h **** 	}
 1056              		.loc 9 373 19 is_stmt 0 view .LVU243
 1057 0032 89EE000B 		vdiv.f64	d0, d9, d0
 1058 0036 FFF7FEFF 		bl	exp
 1059              	.LVL54:
 373:FXObjects/LBFX.h **** 	}
 1060              		.loc 9 373 19 view .LVU244
 1061              	.LBE409:
 1062              	.LBE419:
 1063              	.LBB420:
 1064              	.LBB421:
 379:FXObjects/LBFX.h **** 	}
 1065              		.loc 9 379 64 view .LVU245
 1066 003a 94ED167B 		vldr.64	d7, [r4, #88]
 1067              	.LBE421:
ARM GAS  C:\Users\guita\AppData\Local\Temp\ccRE0rrt.s 			page 40


 1068              	.LBE420:
 1069              	.LBB424:
 1070              	.LBB410:
 373:FXObjects/LBFX.h **** 	}
 1071              		.loc 9 373 14 view .LVU246
 1072 003e 84ED180B 		vstr.64	d0, [r4, #96]
 1073              	.LVL55:
 373:FXObjects/LBFX.h **** 	}
 1074              		.loc 9 373 14 view .LVU247
 1075              	.LBE410:
 1076              	.LBE424:
 1077              	.LBE437:
 313:FXObjects/LBFX.h **** 	}
 1078              		.loc 9 313 3 is_stmt 1 view .LVU248
 1079              	.LBB438:
 1080              	.LBB425:
 1081              	.LBI420:
 376:FXObjects/LBFX.h **** 		if (!forceCalc && parameters.releaseTime == release_ms) return;
 1082              		.loc 9 376 7 view .LVU249
 1083              	.LBB422:
 377:FXObjects/LBFX.h **** 		parameters.releaseTime = release_ms;
 1084              		.loc 9 377 3 view .LVU250
 378:FXObjects/LBFX.h **** 		releaseTime = exp(TLD_AUDIO_ENVELOPE_ANALOG_TC / (release_ms * sampleRate * 0.001));
 1085              		.loc 9 378 3 view .LVU251
 378:FXObjects/LBFX.h **** 		releaseTime = exp(TLD_AUDIO_ENVELOPE_ANALOG_TC / (release_ms * sampleRate * 0.001));
 1086              		.loc 9 378 26 is_stmt 0 view .LVU252
 1087 0042 84ED128B 		vstr.64	d8, [r4, #72]
 379:FXObjects/LBFX.h **** 	}
 1088              		.loc 9 379 3 is_stmt 1 view .LVU253
 379:FXObjects/LBFX.h **** 	}
 1089              		.loc 9 379 64 is_stmt 0 view .LVU254
 1090 0046 28EE070B 		vmul.f64	d0, d8, d7
 379:FXObjects/LBFX.h **** 	}
 1091              		.loc 9 379 77 view .LVU255
 1092 004a 20EE0A0B 		vmul.f64	d0, d0, d10
 379:FXObjects/LBFX.h **** 	}
 1093              		.loc 9 379 20 view .LVU256
 1094 004e 89EE000B 		vdiv.f64	d0, d9, d0
 1095 0052 FFF7FEFF 		bl	exp
 1096              	.LVL56:
 1097              	.LBE422:
 1098              	.LBE425:
 1099              	.LBE438:
 407:FXObjects/LBFX.h **** 
 1100              		.loc 9 407 2 view .LVU257
 1101 0056 2846     		mov	r0, r5
 1102 0058 BDEC068B 		vldm	sp!, {d8-d10}
 1103              		.cfi_restore 84
 1104              		.cfi_restore 85
 1105              		.cfi_restore 82
 1106              		.cfi_restore 83
 1107              		.cfi_restore 80
 1108              		.cfi_restore 81
 1109              		.cfi_def_cfa_offset 16
 1110              	.LVL57:
 1111              	.LBB439:
 1112              	.LBB426:
ARM GAS  C:\Users\guita\AppData\Local\Temp\ccRE0rrt.s 			page 41


 1113              	.LBB423:
 379:FXObjects/LBFX.h **** 	}
 1114              		.loc 9 379 15 view .LVU258
 1115 005c 84ED1A0B 		vstr.64	d0, [r4, #104]
 1116              	.LVL58:
 379:FXObjects/LBFX.h **** 	}
 1117              		.loc 9 379 15 view .LVU259
 1118              	.LBE423:
 1119              	.LBE426:
 1120              	.LBE439:
 406:FXObjects/LBFX.h **** 	}
 1121              		.loc 9 406 3 is_stmt 1 view .LVU260
 407:FXObjects/LBFX.h **** 
 1122              		.loc 9 407 2 is_stmt 0 view .LVU261
 1123 0060 38BD     		pop	{r3, r4, r5, pc}
 1124              	.LVL59:
 1125              	.L50:
 407:FXObjects/LBFX.h **** 
 1126              		.loc 9 407 2 view .LVU262
 1127 0062 00BFAFF3 		.align	3
 1127      0080
 1128              	.L49:
 1129 0068 FCA9F1D2 		.word	-755914244
 1130 006c 4D62503F 		.word	1062232653
 1131 0070 854550D9 		.word	-649050747
 1132 0074 50FDEFBF 		.word	-1074791088
 1133              		.cfi_endproc
 1134              	.LFE2259:
 1136              		.section	.text._ZN8FatPunch5resetEd,"axG",%progbits,_ZN8FatPunch5resetEd,comdat
 1137              		.align	1
 1138              		.p2align 2,,3
 1139              		.weak	_ZN8FatPunch5resetEd
 1140              		.syntax unified
 1141              		.thumb
 1142              		.thumb_func
 1143              		.fpu fpv5-d16
 1145              	_ZN8FatPunch5resetEd:
 1146              	.LVL60:
 1147              	.LFB4534:
  54:FXObjects/BassPedalFX.h **** 		lpeq.reset(_sampleRate);
 1148              		.loc 11 54 16 is_stmt 1 view -0
 1149              		.cfi_startproc
 1150              		@ args = 0, pretend = 0, frame = 0
 1151              		@ frame_needed = 0, uses_anonymous_args = 0
  55:FXObjects/BassPedalFX.h **** 		hsf.reset(_sampleRate);
 1152              		.loc 11 55 3 view .LVU264
  54:FXObjects/BassPedalFX.h **** 		lpeq.reset(_sampleRate);
 1153              		.loc 11 54 16 is_stmt 0 view .LVU265
 1154 0000 38B5     		push	{r3, r4, r5, lr}
 1155              		.cfi_def_cfa_offset 16
 1156              		.cfi_offset 3, -16
 1157              		.cfi_offset 4, -12
 1158              		.cfi_offset 5, -8
 1159              		.cfi_offset 14, -4
 1160 0002 0446     		mov	r4, r0
 1161              	.LVL61:
 1162              	.LBB462:
ARM GAS  C:\Users\guita\AppData\Local\Temp\ccRE0rrt.s 			page 42


 1163              	.LBI462:
 233:FXObjects/LBFX.h **** 		sampleRate = _sampleRate;
 1164              		.loc 9 233 7 is_stmt 1 view .LVU266
 1165              	.LBB463:
 234:FXObjects/LBFX.h **** 		return biquad.reset(sampleRate);
 1166              		.loc 9 234 3 view .LVU267
 1167              	.LBB464:
 1168              	.LBB465:
  57:FXObjects/LBFX.h **** 		return true;
 1169              		.loc 9 57 9 is_stmt 0 view .LVU268
 1170 0004 2022     		movs	r2, #32
 1171 0006 0021     		movs	r1, #0
 1172 0008 5030     		adds	r0, r0, #80
 1173              	.LVL62:
  57:FXObjects/LBFX.h **** 		return true;
 1174              		.loc 9 57 9 view .LVU269
 1175              	.LBE465:
 1176              	.LBE464:
 1177              	.LBE463:
 1178              	.LBE462:
 1179              	.LBB469:
 1180              	.LBB470:
 1181              	.LBB471:
 1182              	.LBB472:
 1183              	.LBB473:
 154:FXObjects/LBFX.h **** 		return *this;
 1184              		.loc 9 154 13 view .LVU270
 1185 000a 0125     		movs	r5, #1
 1186              	.LBE473:
 1187              	.LBE472:
 1188              	.LBE471:
 1189              	.LBE470:
 1190              	.LBE469:
  54:FXObjects/BassPedalFX.h **** 		lpeq.reset(_sampleRate);
 1191              		.loc 11 54 16 view .LVU271
 1192 000c 2DED088B 		vpush.64	{d8, d9, d10, d11}
 1193              		.cfi_def_cfa_offset 48
 1194              		.cfi_offset 80, -48
 1195              		.cfi_offset 81, -44
 1196              		.cfi_offset 82, -40
 1197              		.cfi_offset 83, -36
 1198              		.cfi_offset 84, -32
 1199              		.cfi_offset 85, -28
 1200              		.cfi_offset 86, -24
 1201              		.cfi_offset 87, -20
  54:FXObjects/BassPedalFX.h **** 		lpeq.reset(_sampleRate);
 1202              		.loc 11 54 16 view .LVU272
 1203 0010 B0EE409B 		vmov.f64	d9, d0
 1204              	.LBB517:
 1205              	.LBB468:
 234:FXObjects/LBFX.h **** 		return biquad.reset(sampleRate);
 1206              		.loc 9 234 14 view .LVU273
 1207 0014 84ED300B 		vstr.64	d0, [r4, #192]
 235:FXObjects/LBFX.h **** 	}
 1208              		.loc 9 235 3 is_stmt 1 view .LVU274
 1209              	.LVL63:
 1210              	.LBB467:
ARM GAS  C:\Users\guita\AppData\Local\Temp\ccRE0rrt.s 			page 43


 1211              	.LBI464:
  56:FXObjects/LBFX.h **** 		memset(&stateArray[0], 0, sizeof(double) * numStates);
 1212              		.loc 9 56 7 view .LVU275
 1213              	.LBB466:
  57:FXObjects/LBFX.h **** 		return true;
 1214              		.loc 9 57 3 view .LVU276
  57:FXObjects/LBFX.h **** 		return true;
 1215              		.loc 9 57 9 is_stmt 0 view .LVU277
 1216 0018 FFF7FEFF 		bl	memset
 1217              	.LVL64:
  58:FXObjects/LBFX.h **** 	}
 1218              		.loc 9 58 3 is_stmt 1 view .LVU278
  58:FXObjects/LBFX.h **** 	}
 1219              		.loc 9 58 3 is_stmt 0 view .LVU279
 1220              	.LBE466:
 1221              	.LBE467:
 1222              	.LBE468:
 1223              	.LBE517:
  56:FXObjects/BassPedalFX.h **** 		compressor.reset(_sampleRate);
 1224              		.loc 11 56 3 is_stmt 1 view .LVU280
 1225              	.LBB518:
 1226              	.LBI518:
 276:FXObjects/LBFX.h **** 		sampleRate = _sampleRate;
 1227              		.loc 9 276 7 view .LVU281
 1228              	.LBB519:
 277:FXObjects/LBFX.h **** 		return biquad.reset(sampleRate);
 1229              		.loc 9 277 3 view .LVU282
 1230              	.LBB520:
 1231              	.LBB521:
  57:FXObjects/LBFX.h **** 		return true;
 1232              		.loc 9 57 9 is_stmt 0 view .LVU283
 1233 001c 0021     		movs	r1, #0
 1234 001e 2022     		movs	r2, #32
 1235 0020 04F58470 		add	r0, r4, #264
 1236              	.LBE521:
 1237              	.LBE520:
 277:FXObjects/LBFX.h **** 		return biquad.reset(sampleRate);
 1238              		.loc 9 277 14 view .LVU284
 1239 0024 84ED5C9B 		vstr.64	d9, [r4, #368]
 278:FXObjects/LBFX.h **** 	}
 1240              		.loc 9 278 3 is_stmt 1 view .LVU285
 1241              	.LVL65:
 1242              	.LBB523:
 1243              	.LBI520:
  56:FXObjects/LBFX.h **** 		memset(&stateArray[0], 0, sizeof(double) * numStates);
 1244              		.loc 9 56 7 view .LVU286
 1245              	.LBB522:
  57:FXObjects/LBFX.h **** 		return true;
 1246              		.loc 9 57 3 view .LVU287
  57:FXObjects/LBFX.h **** 		return true;
 1247              		.loc 9 57 9 is_stmt 0 view .LVU288
 1248 0028 FFF7FEFF 		bl	memset
 1249              	.LVL66:
  58:FXObjects/LBFX.h **** 	}
 1250              		.loc 9 58 3 is_stmt 1 view .LVU289
  58:FXObjects/LBFX.h **** 	}
 1251              		.loc 9 58 3 is_stmt 0 view .LVU290
ARM GAS  C:\Users\guita\AppData\Local\Temp\ccRE0rrt.s 			page 44


 1252              	.LBE522:
 1253              	.LBE523:
 1254              	.LBE519:
 1255              	.LBE518:
  57:FXObjects/BassPedalFX.h **** 		return true;
 1256              		.loc 11 57 3 is_stmt 1 view .LVU291
 1257              	.LBB524:
 1258              	.LBI469:
 401:FXObjects/LBFX.h **** 		detector.reset(_sampleRate);
 1259              		.loc 9 401 15 view .LVU292
 1260              	.LBB512:
 402:FXObjects/LBFX.h **** 		LB_EnvDetectorParameters detectorParams = detector.getParameters();
 1261              		.loc 9 402 3 view .LVU293
 1262              	.LBB492:
 1263              	.LBI492:
 316:FXObjects/LBFX.h **** 		sampleRate = _sampleRate;
 1264              		.loc 9 316 15 view .LVU294
 1265              	.LBB493:
 317:FXObjects/LBFX.h **** 		lastEnvelope = 0.0;
 1266              		.loc 9 317 3 view .LVU295
 318:FXObjects/LBFX.h **** 		return true;
 1267              		.loc 9 318 16 is_stmt 0 view .LVU296
 1268 002c 0022     		movs	r2, #0
 1269 002e 0023     		movs	r3, #0
 1270              	.LBE493:
 1271              	.LBE492:
 1272              	.LBB496:
 1273              	.LBB476:
 1274              	.LBB474:
 154:FXObjects/LBFX.h **** 		return *this;
 1275              		.loc 9 154 13 view .LVU297
 1276 0030 84F8C851 		strb	r5, [r4, #456]
 1277              	.LBE474:
 1278              	.LBE476:
 1279              	.LBE496:
 1280              	.LBB497:
 1281              	.LBB498:
 306:FXObjects/LBFX.h **** 	}
 1282              		.loc 9 306 10 view .LVU298
 1283 0034 94ED6E0B 		vldr.64	d0, [r4, #440]
 1284              	.LBE498:
 1285              	.LBE497:
 1286              	.LBB501:
 1287              	.LBB477:
 1288              	.LBB478:
 373:FXObjects/LBFX.h **** 	}
 1289              		.loc 9 373 75 view .LVU299
 1290 0038 9FED13BB 		vldr.64	d11, .L53
 373:FXObjects/LBFX.h **** 	}
 1291              		.loc 9 373 19 view .LVU300
 1292 003c 9FED14AB 		vldr.64	d10, .L53+8
 373:FXObjects/LBFX.h **** 	}
 1293              		.loc 9 373 62 view .LVU301
 1294 0040 20EE090B 		vmul.f64	d0, d0, d9
 1295              	.LBE478:
 1296              	.LBE477:
 1297              	.LBE501:
ARM GAS  C:\Users\guita\AppData\Local\Temp\ccRE0rrt.s 			page 45


 1298              	.LBB502:
 1299              	.LBB494:
 317:FXObjects/LBFX.h **** 		lastEnvelope = 0.0;
 1300              		.loc 9 317 14 view .LVU302
 1301 0044 84ED749B 		vstr.64	d9, [r4, #464]
 318:FXObjects/LBFX.h **** 		return true;
 1302              		.loc 9 318 3 is_stmt 1 view .LVU303
 318:FXObjects/LBFX.h **** 		return true;
 1303              		.loc 9 318 16 is_stmt 0 view .LVU304
 1304 0048 C4E97A23 		strd	r2, [r4, #488]
 1305              	.LBE494:
 1306              	.LBE502:
 1307              	.LBB503:
 1308              	.LBB482:
 1309              	.LBB479:
 373:FXObjects/LBFX.h **** 	}
 1310              		.loc 9 373 75 view .LVU305
 1311 004c 20EE0B0B 		vmul.f64	d0, d0, d11
 1312              	.LBE479:
 1313              	.LBE482:
 1314              	.LBE503:
 1315              	.LBB504:
 1316              	.LBB499:
 306:FXObjects/LBFX.h **** 	}
 1317              		.loc 9 306 10 view .LVU306
 1318 0050 94ED708B 		vldr.64	d8, [r4, #448]
 1319              	.LBE499:
 1320              	.LBE504:
 1321              	.LBB505:
 1322              	.LBB495:
 319:FXObjects/LBFX.h **** 	}
 1323              		.loc 9 319 3 is_stmt 1 view .LVU307
 1324              	.LVL67:
 319:FXObjects/LBFX.h **** 	}
 1325              		.loc 9 319 3 is_stmt 0 view .LVU308
 1326              	.LBE495:
 1327              	.LBE505:
 403:FXObjects/LBFX.h **** 		detectorParams.detect_dB = true;
 1328              		.loc 9 403 3 is_stmt 1 view .LVU309
 1329              	.LBB506:
 1330              	.LBI497:
 305:FXObjects/LBFX.h **** 		return parameters;
 1331              		.loc 9 305 27 view .LVU310
 1332              	.LBB500:
 306:FXObjects/LBFX.h **** 	}
 1333              		.loc 9 306 3 view .LVU311
 306:FXObjects/LBFX.h **** 	}
 1334              		.loc 9 306 3 is_stmt 0 view .LVU312
 1335              	.LBE500:
 1336              	.LBE506:
 404:FXObjects/LBFX.h **** 		detector.setParameters(detectorParams);
 1337              		.loc 9 404 3 is_stmt 1 view .LVU313
 405:FXObjects/LBFX.h **** 		return true;
 1338              		.loc 9 405 3 view .LVU314
 1339              	.LBB507:
 1340              	.LBI471:
 309:FXObjects/LBFX.h **** 		parameters = _parameters;
ARM GAS  C:\Users\guita\AppData\Local\Temp\ccRE0rrt.s 			page 46


 1341              		.loc 9 309 7 view .LVU315
 1342              	.LBE507:
 1343              	.LBE512:
 1344              	.LBE524:
 310:FXObjects/LBFX.h **** 
 1345              		.loc 9 310 3 view .LVU316
 1346              	.LBB525:
 1347              	.LBB513:
 1348              	.LBB508:
 1349              	.LBB483:
 1350              	.LBI472:
 150:FXObjects/LBFX.h **** 		if (this == &params) return *this;
 1351              		.loc 9 150 28 view .LVU317
 1352              	.LBB475:
 151:FXObjects/LBFX.h **** 		attackTime = params.attackTime;
 1353              		.loc 9 151 3 view .LVU318
 152:FXObjects/LBFX.h **** 		releaseTime = params.releaseTime;
 1354              		.loc 9 152 3 view .LVU319
 153:FXObjects/LBFX.h **** 		detect_dB = params.detect_dB;
 1355              		.loc 9 153 3 view .LVU320
 154:FXObjects/LBFX.h **** 		return *this;
 1356              		.loc 9 154 3 view .LVU321
 155:FXObjects/LBFX.h **** 	}
 1357              		.loc 9 155 3 view .LVU322
 155:FXObjects/LBFX.h **** 	}
 1358              		.loc 9 155 3 is_stmt 0 view .LVU323
 1359              	.LBE475:
 1360              	.LBE483:
 1361              	.LBE508:
 1362              	.LBE513:
 1363              	.LBE525:
 312:FXObjects/LBFX.h **** 		setReleaseTime(_parameters.releaseTime, true);
 1364              		.loc 9 312 3 is_stmt 1 view .LVU324
 1365              	.LBB526:
 1366              	.LBB514:
 1367              	.LBB509:
 1368              	.LBB484:
 1369              	.LBI477:
 369:FXObjects/LBFX.h **** 		if (!forceCalc && parameters.attackTime == attack_ms) return;
 1370              		.loc 9 369 7 view .LVU325
 1371              	.LBB480:
 370:FXObjects/LBFX.h **** 		parameters.attackTime = attack_ms;
 1372              		.loc 9 370 3 view .LVU326
 371:FXObjects/LBFX.h **** 		//try this with -1?
 1373              		.loc 9 371 3 view .LVU327
 373:FXObjects/LBFX.h **** 	}
 1374              		.loc 9 373 3 view .LVU328
 373:FXObjects/LBFX.h **** 	}
 1375              		.loc 9 373 19 is_stmt 0 view .LVU329
 1376 0054 8AEE000B 		vdiv.f64	d0, d10, d0
 1377 0058 FFF7FEFF 		bl	exp
 1378              	.LVL68:
 1379              	.LBE480:
 1380              	.LBE484:
 1381              	.LBB485:
 1382              	.LBB486:
 379:FXObjects/LBFX.h **** 	}
ARM GAS  C:\Users\guita\AppData\Local\Temp\ccRE0rrt.s 			page 47


 1383              		.loc 9 379 64 view .LVU330
 1384 005c 94ED747B 		vldr.64	d7, [r4, #464]
 1385              	.LBE486:
 1386              	.LBE485:
 1387              	.LBB489:
 1388              	.LBB481:
 373:FXObjects/LBFX.h **** 	}
 1389              		.loc 9 373 14 view .LVU331
 1390 0060 84ED760B 		vstr.64	d0, [r4, #472]
 1391              	.LVL69:
 373:FXObjects/LBFX.h **** 	}
 1392              		.loc 9 373 14 view .LVU332
 1393              	.LBE481:
 1394              	.LBE489:
 1395              	.LBE509:
 1396              	.LBE514:
 1397              	.LBE526:
 313:FXObjects/LBFX.h **** 	}
 1398              		.loc 9 313 3 is_stmt 1 view .LVU333
 1399              	.LBB527:
 1400              	.LBB515:
 1401              	.LBB510:
 1402              	.LBB490:
 1403              	.LBI485:
 376:FXObjects/LBFX.h **** 		if (!forceCalc && parameters.releaseTime == release_ms) return;
 1404              		.loc 9 376 7 view .LVU334
 1405              	.LBB487:
 377:FXObjects/LBFX.h **** 		parameters.releaseTime = release_ms;
 1406              		.loc 9 377 3 view .LVU335
 378:FXObjects/LBFX.h **** 		releaseTime = exp(TLD_AUDIO_ENVELOPE_ANALOG_TC / (release_ms * sampleRate * 0.001));
 1407              		.loc 9 378 3 view .LVU336
 378:FXObjects/LBFX.h **** 		releaseTime = exp(TLD_AUDIO_ENVELOPE_ANALOG_TC / (release_ms * sampleRate * 0.001));
 1408              		.loc 9 378 26 is_stmt 0 view .LVU337
 1409 0064 84ED708B 		vstr.64	d8, [r4, #448]
 379:FXObjects/LBFX.h **** 	}
 1410              		.loc 9 379 3 is_stmt 1 view .LVU338
 379:FXObjects/LBFX.h **** 	}
 1411              		.loc 9 379 64 is_stmt 0 view .LVU339
 1412 0068 28EE070B 		vmul.f64	d0, d8, d7
 379:FXObjects/LBFX.h **** 	}
 1413              		.loc 9 379 77 view .LVU340
 1414 006c 20EE0B0B 		vmul.f64	d0, d0, d11
 379:FXObjects/LBFX.h **** 	}
 1415              		.loc 9 379 20 view .LVU341
 1416 0070 8AEE000B 		vdiv.f64	d0, d10, d0
 1417 0074 FFF7FEFF 		bl	exp
 1418              	.LVL70:
 1419              	.LBE487:
 1420              	.LBE490:
 1421              	.LBE510:
 1422              	.LBE515:
 1423              	.LBE527:
  59:FXObjects/BassPedalFX.h **** 
 1424              		.loc 11 59 2 view .LVU342
 1425 0078 2846     		mov	r0, r5
 1426 007a BDEC088B 		vldm	sp!, {d8-d11}
 1427              		.cfi_restore 86
ARM GAS  C:\Users\guita\AppData\Local\Temp\ccRE0rrt.s 			page 48


 1428              		.cfi_restore 87
 1429              		.cfi_restore 84
 1430              		.cfi_restore 85
 1431              		.cfi_restore 82
 1432              		.cfi_restore 83
 1433              		.cfi_restore 80
 1434              		.cfi_restore 81
 1435              		.cfi_def_cfa_offset 16
 1436              	.LVL71:
 1437              	.LBB528:
 1438              	.LBB516:
 1439              	.LBB511:
 1440              	.LBB491:
 1441              	.LBB488:
 379:FXObjects/LBFX.h **** 	}
 1442              		.loc 9 379 15 view .LVU343
 1443 007e 84ED780B 		vstr.64	d0, [r4, #480]
 1444              	.LVL72:
 379:FXObjects/LBFX.h **** 	}
 1445              		.loc 9 379 15 view .LVU344
 1446              	.LBE488:
 1447              	.LBE491:
 1448              	.LBE511:
 406:FXObjects/LBFX.h **** 	}
 1449              		.loc 9 406 3 is_stmt 1 view .LVU345
 406:FXObjects/LBFX.h **** 	}
 1450              		.loc 9 406 3 is_stmt 0 view .LVU346
 1451              	.LBE516:
 1452              	.LBE528:
  58:FXObjects/BassPedalFX.h **** 	}
 1453              		.loc 11 58 3 is_stmt 1 view .LVU347
  59:FXObjects/BassPedalFX.h **** 
 1454              		.loc 11 59 2 is_stmt 0 view .LVU348
 1455 0082 38BD     		pop	{r3, r4, r5, pc}
 1456              	.LVL73:
 1457              	.L54:
  59:FXObjects/BassPedalFX.h **** 
 1458              		.loc 11 59 2 view .LVU349
 1459 0084 AFF30080 		.align	3
 1460              	.L53:
 1461 0088 FCA9F1D2 		.word	-755914244
 1462 008c 4D62503F 		.word	1062232653
 1463 0090 854550D9 		.word	-649050747
 1464 0094 50FDEFBF 		.word	-1074791088
 1465              		.cfi_endproc
 1466              	.LFE4534:
 1468              		.section	.text._ZN10MelodyMode18processAudioSampleEd,"axG",%progbits,_ZN10MelodyMode18processAudio
 1469              		.align	1
 1470              		.p2align 2,,3
 1471              		.weak	_ZN10MelodyMode18processAudioSampleEd
 1472              		.syntax unified
 1473              		.thumb
 1474              		.thumb_func
 1475              		.fpu fpv5-d16
 1477              	_ZN10MelodyMode18processAudioSampleEd:
 1478              	.LVL74:
 1479              	.LFB4546:
ARM GAS  C:\Users\guita\AppData\Local\Temp\ccRE0rrt.s 			page 49


 146:FXObjects/BassPedalFX.h **** 		//processing here
 1480              		.loc 11 146 17 is_stmt 1 view -0
 1481              		.cfi_startproc
 1482              		@ args = 0, pretend = 0, frame = 0
 1483              		@ frame_needed = 0, uses_anonymous_args = 0
 151:FXObjects/BassPedalFX.h **** 
 1484              		.loc 11 151 3 view .LVU351
 1485 0000 0379     		ldrb	r3, [r0, #4]	@ zero_extendqisi2
 1486 0002 03B9     		cbnz	r3, .L64
 168:FXObjects/BassPedalFX.h **** 
 1487              		.loc 11 168 2 is_stmt 0 view .LVU352
 1488 0004 7047     		bx	lr
 1489              	.L64:
 1490              	.LBB541:
 1491              	.LBB542:
 1492              	.LBB543:
 1493              	.LBB544:
 171:FXObjects/BassPedalFX.h **** 
 172:FXObjects/BassPedalFX.h **** 	MelodyModeParameters getParameters() {
 173:FXObjects/BassPedalFX.h **** 		return parameters;
 174:FXObjects/BassPedalFX.h **** 	}
 175:FXObjects/BassPedalFX.h **** 
 176:FXObjects/BassPedalFX.h **** 	void setParameters(const MelodyModeParameters& _parameters) {
 177:FXObjects/BassPedalFX.h **** 		if (parameters.on != _parameters.on) {
 178:FXObjects/BassPedalFX.h **** 			parameters = _parameters;
 179:FXObjects/BassPedalFX.h **** 		}
 180:FXObjects/BassPedalFX.h **** 		else return;
 181:FXObjects/BassPedalFX.h **** 
 182:FXObjects/BassPedalFX.h **** 		//clamp any parameters here
 183:FXObjects/BassPedalFX.h **** 
 184:FXObjects/BassPedalFX.h **** 		//update sub-object parameters here
 185:FXObjects/BassPedalFX.h **** 		LB_PEQParameters midEQParams = midEQ.getParameters();
 186:FXObjects/BassPedalFX.h **** 		midEQParams.fc = 1118.0;
 187:FXObjects/BassPedalFX.h **** 		midEQParams.gain = 10.0;
 188:FXObjects/BassPedalFX.h **** 		midEQParams.Q = 0.3;
 189:FXObjects/BassPedalFX.h **** 		midEQ.setParameters(midEQParams);
 190:FXObjects/BassPedalFX.h **** 
 191:FXObjects/BassPedalFX.h **** 		LB_PEQParameters hiEQParams = hiEQ.getParameters();
 192:FXObjects/BassPedalFX.h **** 		hiEQParams.fc = 4763.0;
 193:FXObjects/BassPedalFX.h **** 		hiEQParams.gain = 5.9;
 194:FXObjects/BassPedalFX.h **** 		hiEQParams.Q = 0.6;
 195:FXObjects/BassPedalFX.h **** 		hiEQ.setParameters(hiEQParams);
 196:FXObjects/BassPedalFX.h **** 	}
 197:FXObjects/BassPedalFX.h **** 
 198:FXObjects/BassPedalFX.h **** private:
 199:FXObjects/BassPedalFX.h **** 	MelodyModeParameters parameters;
 200:FXObjects/BassPedalFX.h **** 	LB_PEQ midEQ, hiEQ;
 201:FXObjects/BassPedalFX.h **** 
 202:FXObjects/BassPedalFX.h **** 	double waveShaper(double x) {
 203:FXObjects/BassPedalFX.h **** 		float k = 5.4;
 204:FXObjects/BassPedalFX.h **** 		double num = tanh(k * x * 1.33) * 0.35;
 1494              		.loc 11 204 23 view .LVU353
 1495 0006 9FED346B 		vldr.64	d6, .L65
 1496              		.loc 11 204 20 view .LVU354
 1497 000a 9FED357B 		vldr.64	d7, .L65+8
 1498              	.LBE544:
 1499              	.LBE543:
ARM GAS  C:\Users\guita\AppData\Local\Temp\ccRE0rrt.s 			page 50


 1500              	.LBE542:
 1501              	.LBE541:
 146:FXObjects/BassPedalFX.h **** 		//processing here
 1502              		.loc 11 146 17 view .LVU355
 1503 000e 10B5     		push	{r4, lr}
 1504              		.cfi_def_cfa_offset 8
 1505              		.cfi_offset 4, -8
 1506              		.cfi_offset 14, -4
 1507              	.LBB628:
 1508              	.LBB623:
 1509              	.LBB551:
 1510              	.LBB545:
 1511              		.loc 11 204 23 view .LVU356
 1512 0010 20EE060B 		vmul.f64	d0, d0, d6
 1513              	.LVL75:
 1514              		.loc 11 204 23 view .LVU357
 1515 0014 0446     		mov	r4, r0
 1516              	.LVL76:
 1517              		.loc 11 204 23 view .LVU358
 1518              	.LBE545:
 1519              	.LBE551:
 1520              	.LBE623:
 1521              	.LBI541:
 146:FXObjects/BassPedalFX.h **** 		//processing here
 1522              		.loc 11 146 17 is_stmt 1 view .LVU359
 1523              	.LBB624:
 154:FXObjects/BassPedalFX.h **** 
 1524              		.loc 11 154 3 view .LVU360
 1525              	.LBB552:
 1526              	.LBI543:
 202:FXObjects/BassPedalFX.h **** 		float k = 5.4;
 1527              		.loc 11 202 9 view .LVU361
 1528              	.LBB546:
 203:FXObjects/BassPedalFX.h **** 		double num = tanh(k * x * 1.33) * 0.35;
 1529              		.loc 11 203 3 view .LVU362
 1530              		.loc 11 204 3 view .LVU363
 1531              	.LBE546:
 1532              	.LBE552:
 1533              	.LBE624:
 1534              	.LBE628:
 146:FXObjects/BassPedalFX.h **** 		//processing here
 1535              		.loc 11 146 17 is_stmt 0 view .LVU364
 1536 0016 2DED068B 		vpush.64	{d8, d9, d10}
 1537              		.cfi_def_cfa_offset 32
 1538              		.cfi_offset 80, -32
 1539              		.cfi_offset 81, -28
 1540              		.cfi_offset 82, -24
 1541              		.cfi_offset 83, -20
 1542              		.cfi_offset 84, -16
 1543              		.cfi_offset 85, -12
 1544              	.LBB629:
 1545              	.LBB625:
 1546              	.LBB553:
 1547              	.LBB547:
 205:FXObjects/BassPedalFX.h **** 		double den = tanh(k);
 206:FXObjects/BassPedalFX.h **** 		return num / den;
 1548              		.loc 11 206 16 view .LVU365
ARM GAS  C:\Users\guita\AppData\Local\Temp\ccRE0rrt.s 			page 51


 1549 001a 9FED339B 		vldr.64	d9, .L65+16
 204:FXObjects/BassPedalFX.h **** 		double den = tanh(k);
 1550              		.loc 11 204 20 view .LVU366
 1551 001e 20EE070B 		vmul.f64	d0, d0, d7
 1552 0022 FFF7FEFF 		bl	tanh
 1553              	.LVL77:
 205:FXObjects/BassPedalFX.h **** 		double den = tanh(k);
 1554              		.loc 11 205 3 is_stmt 1 view .LVU367
 205:FXObjects/BassPedalFX.h **** 		double den = tanh(k);
 1555              		.loc 11 205 3 is_stmt 0 view .LVU368
 1556              	.LBE547:
 1557              	.LBE553:
 1558              	.LBE625:
 1559              	.LBE629:
 1560              		.file 12 "c:\\users\\guita\\documents\\daisytoolchain-0.3.3\\windows\\arm-none-eabi\\include\\c++\
   1:c:\users\guita\documents\daisytoolchain-0.3.3\windows\arm-none-eabi\include\c++\10.2.1\cmath **** // -*- C++ -*- C forwarding header.
   2:c:\users\guita\documents\daisytoolchain-0.3.3\windows\arm-none-eabi\include\c++\10.2.1\cmath **** 
   3:c:\users\guita\documents\daisytoolchain-0.3.3\windows\arm-none-eabi\include\c++\10.2.1\cmath **** // Copyright (C) 1997-2020 Free Software Foundation, Inc.
   4:c:\users\guita\documents\daisytoolchain-0.3.3\windows\arm-none-eabi\include\c++\10.2.1\cmath **** //
   5:c:\users\guita\documents\daisytoolchain-0.3.3\windows\arm-none-eabi\include\c++\10.2.1\cmath **** // This file is part of the GNU ISO C++ Library.  This library is free
   6:c:\users\guita\documents\daisytoolchain-0.3.3\windows\arm-none-eabi\include\c++\10.2.1\cmath **** // software; you can redistribute it and/or modify it under the
   7:c:\users\guita\documents\daisytoolchain-0.3.3\windows\arm-none-eabi\include\c++\10.2.1\cmath **** // terms of the GNU General Public License as published by the
   8:c:\users\guita\documents\daisytoolchain-0.3.3\windows\arm-none-eabi\include\c++\10.2.1\cmath **** // Free Software Foundation; either version 3, or (at your option)
   9:c:\users\guita\documents\daisytoolchain-0.3.3\windows\arm-none-eabi\include\c++\10.2.1\cmath **** // any later version.
  10:c:\users\guita\documents\daisytoolchain-0.3.3\windows\arm-none-eabi\include\c++\10.2.1\cmath **** 
  11:c:\users\guita\documents\daisytoolchain-0.3.3\windows\arm-none-eabi\include\c++\10.2.1\cmath **** // This library is distributed in the hope that it will be useful,
  12:c:\users\guita\documents\daisytoolchain-0.3.3\windows\arm-none-eabi\include\c++\10.2.1\cmath **** // but WITHOUT ANY WARRANTY; without even the implied warranty of
  13:c:\users\guita\documents\daisytoolchain-0.3.3\windows\arm-none-eabi\include\c++\10.2.1\cmath **** // MERCHANTABILITY or FITNESS FOR A PARTICULAR PURPOSE.  See the
  14:c:\users\guita\documents\daisytoolchain-0.3.3\windows\arm-none-eabi\include\c++\10.2.1\cmath **** // GNU General Public License for more details.
  15:c:\users\guita\documents\daisytoolchain-0.3.3\windows\arm-none-eabi\include\c++\10.2.1\cmath **** 
  16:c:\users\guita\documents\daisytoolchain-0.3.3\windows\arm-none-eabi\include\c++\10.2.1\cmath **** // Under Section 7 of GPL version 3, you are granted additional
  17:c:\users\guita\documents\daisytoolchain-0.3.3\windows\arm-none-eabi\include\c++\10.2.1\cmath **** // permissions described in the GCC Runtime Library Exception, version
  18:c:\users\guita\documents\daisytoolchain-0.3.3\windows\arm-none-eabi\include\c++\10.2.1\cmath **** // 3.1, as published by the Free Software Foundation.
  19:c:\users\guita\documents\daisytoolchain-0.3.3\windows\arm-none-eabi\include\c++\10.2.1\cmath **** 
  20:c:\users\guita\documents\daisytoolchain-0.3.3\windows\arm-none-eabi\include\c++\10.2.1\cmath **** // You should have received a copy of the GNU General Public License and
  21:c:\users\guita\documents\daisytoolchain-0.3.3\windows\arm-none-eabi\include\c++\10.2.1\cmath **** // a copy of the GCC Runtime Library Exception along with this program;
  22:c:\users\guita\documents\daisytoolchain-0.3.3\windows\arm-none-eabi\include\c++\10.2.1\cmath **** // see the files COPYING3 and COPYING.RUNTIME respectively.  If not, see
  23:c:\users\guita\documents\daisytoolchain-0.3.3\windows\arm-none-eabi\include\c++\10.2.1\cmath **** // <http://www.gnu.org/licenses/>.
  24:c:\users\guita\documents\daisytoolchain-0.3.3\windows\arm-none-eabi\include\c++\10.2.1\cmath **** 
  25:c:\users\guita\documents\daisytoolchain-0.3.3\windows\arm-none-eabi\include\c++\10.2.1\cmath **** /** @file include/cmath
  26:c:\users\guita\documents\daisytoolchain-0.3.3\windows\arm-none-eabi\include\c++\10.2.1\cmath ****  *  This is a Standard C++ Library file.  You should @c \#include this file
  27:c:\users\guita\documents\daisytoolchain-0.3.3\windows\arm-none-eabi\include\c++\10.2.1\cmath ****  *  in your programs, rather than any of the @a *.h implementation files.
  28:c:\users\guita\documents\daisytoolchain-0.3.3\windows\arm-none-eabi\include\c++\10.2.1\cmath ****  *
  29:c:\users\guita\documents\daisytoolchain-0.3.3\windows\arm-none-eabi\include\c++\10.2.1\cmath ****  *  This is the C++ version of the Standard C Library header @c math.h,
  30:c:\users\guita\documents\daisytoolchain-0.3.3\windows\arm-none-eabi\include\c++\10.2.1\cmath ****  *  and its contents are (mostly) the same as that header, but are all
  31:c:\users\guita\documents\daisytoolchain-0.3.3\windows\arm-none-eabi\include\c++\10.2.1\cmath ****  *  contained in the namespace @c std (except for names which are defined
  32:c:\users\guita\documents\daisytoolchain-0.3.3\windows\arm-none-eabi\include\c++\10.2.1\cmath ****  *  as macros in C).
  33:c:\users\guita\documents\daisytoolchain-0.3.3\windows\arm-none-eabi\include\c++\10.2.1\cmath ****  */
  34:c:\users\guita\documents\daisytoolchain-0.3.3\windows\arm-none-eabi\include\c++\10.2.1\cmath **** 
  35:c:\users\guita\documents\daisytoolchain-0.3.3\windows\arm-none-eabi\include\c++\10.2.1\cmath **** //
  36:c:\users\guita\documents\daisytoolchain-0.3.3\windows\arm-none-eabi\include\c++\10.2.1\cmath **** // ISO C++ 14882: 26.5  C library
  37:c:\users\guita\documents\daisytoolchain-0.3.3\windows\arm-none-eabi\include\c++\10.2.1\cmath **** //
  38:c:\users\guita\documents\daisytoolchain-0.3.3\windows\arm-none-eabi\include\c++\10.2.1\cmath **** 
  39:c:\users\guita\documents\daisytoolchain-0.3.3\windows\arm-none-eabi\include\c++\10.2.1\cmath **** #pragma GCC system_header
  40:c:\users\guita\documents\daisytoolchain-0.3.3\windows\arm-none-eabi\include\c++\10.2.1\cmath **** 
  41:c:\users\guita\documents\daisytoolchain-0.3.3\windows\arm-none-eabi\include\c++\10.2.1\cmath **** #include <bits/c++config.h>
  42:c:\users\guita\documents\daisytoolchain-0.3.3\windows\arm-none-eabi\include\c++\10.2.1\cmath **** #include <bits/cpp_type_traits.h>
ARM GAS  C:\Users\guita\AppData\Local\Temp\ccRE0rrt.s 			page 52


  43:c:\users\guita\documents\daisytoolchain-0.3.3\windows\arm-none-eabi\include\c++\10.2.1\cmath **** #include <ext/type_traits.h>
  44:c:\users\guita\documents\daisytoolchain-0.3.3\windows\arm-none-eabi\include\c++\10.2.1\cmath **** #define _GLIBCXX_INCLUDE_NEXT_C_HEADERS
  45:c:\users\guita\documents\daisytoolchain-0.3.3\windows\arm-none-eabi\include\c++\10.2.1\cmath **** #include_next <math.h>
  46:c:\users\guita\documents\daisytoolchain-0.3.3\windows\arm-none-eabi\include\c++\10.2.1\cmath **** #undef _GLIBCXX_INCLUDE_NEXT_C_HEADERS
  47:c:\users\guita\documents\daisytoolchain-0.3.3\windows\arm-none-eabi\include\c++\10.2.1\cmath **** #include <bits/std_abs.h>
  48:c:\users\guita\documents\daisytoolchain-0.3.3\windows\arm-none-eabi\include\c++\10.2.1\cmath **** 
  49:c:\users\guita\documents\daisytoolchain-0.3.3\windows\arm-none-eabi\include\c++\10.2.1\cmath **** #ifndef _GLIBCXX_CMATH
  50:c:\users\guita\documents\daisytoolchain-0.3.3\windows\arm-none-eabi\include\c++\10.2.1\cmath **** #define _GLIBCXX_CMATH 1
  51:c:\users\guita\documents\daisytoolchain-0.3.3\windows\arm-none-eabi\include\c++\10.2.1\cmath **** 
  52:c:\users\guita\documents\daisytoolchain-0.3.3\windows\arm-none-eabi\include\c++\10.2.1\cmath **** // Get rid of those macros defined in <math.h> in lieu of real functions.
  53:c:\users\guita\documents\daisytoolchain-0.3.3\windows\arm-none-eabi\include\c++\10.2.1\cmath **** #undef div
  54:c:\users\guita\documents\daisytoolchain-0.3.3\windows\arm-none-eabi\include\c++\10.2.1\cmath **** #undef acos
  55:c:\users\guita\documents\daisytoolchain-0.3.3\windows\arm-none-eabi\include\c++\10.2.1\cmath **** #undef asin
  56:c:\users\guita\documents\daisytoolchain-0.3.3\windows\arm-none-eabi\include\c++\10.2.1\cmath **** #undef atan
  57:c:\users\guita\documents\daisytoolchain-0.3.3\windows\arm-none-eabi\include\c++\10.2.1\cmath **** #undef atan2
  58:c:\users\guita\documents\daisytoolchain-0.3.3\windows\arm-none-eabi\include\c++\10.2.1\cmath **** #undef ceil
  59:c:\users\guita\documents\daisytoolchain-0.3.3\windows\arm-none-eabi\include\c++\10.2.1\cmath **** #undef cos
  60:c:\users\guita\documents\daisytoolchain-0.3.3\windows\arm-none-eabi\include\c++\10.2.1\cmath **** #undef cosh
  61:c:\users\guita\documents\daisytoolchain-0.3.3\windows\arm-none-eabi\include\c++\10.2.1\cmath **** #undef exp
  62:c:\users\guita\documents\daisytoolchain-0.3.3\windows\arm-none-eabi\include\c++\10.2.1\cmath **** #undef fabs
  63:c:\users\guita\documents\daisytoolchain-0.3.3\windows\arm-none-eabi\include\c++\10.2.1\cmath **** #undef floor
  64:c:\users\guita\documents\daisytoolchain-0.3.3\windows\arm-none-eabi\include\c++\10.2.1\cmath **** #undef fmod
  65:c:\users\guita\documents\daisytoolchain-0.3.3\windows\arm-none-eabi\include\c++\10.2.1\cmath **** #undef frexp
  66:c:\users\guita\documents\daisytoolchain-0.3.3\windows\arm-none-eabi\include\c++\10.2.1\cmath **** #undef ldexp
  67:c:\users\guita\documents\daisytoolchain-0.3.3\windows\arm-none-eabi\include\c++\10.2.1\cmath **** #undef log
  68:c:\users\guita\documents\daisytoolchain-0.3.3\windows\arm-none-eabi\include\c++\10.2.1\cmath **** #undef log10
  69:c:\users\guita\documents\daisytoolchain-0.3.3\windows\arm-none-eabi\include\c++\10.2.1\cmath **** #undef modf
  70:c:\users\guita\documents\daisytoolchain-0.3.3\windows\arm-none-eabi\include\c++\10.2.1\cmath **** #undef pow
  71:c:\users\guita\documents\daisytoolchain-0.3.3\windows\arm-none-eabi\include\c++\10.2.1\cmath **** #undef sin
  72:c:\users\guita\documents\daisytoolchain-0.3.3\windows\arm-none-eabi\include\c++\10.2.1\cmath **** #undef sinh
  73:c:\users\guita\documents\daisytoolchain-0.3.3\windows\arm-none-eabi\include\c++\10.2.1\cmath **** #undef sqrt
  74:c:\users\guita\documents\daisytoolchain-0.3.3\windows\arm-none-eabi\include\c++\10.2.1\cmath **** #undef tan
  75:c:\users\guita\documents\daisytoolchain-0.3.3\windows\arm-none-eabi\include\c++\10.2.1\cmath **** #undef tanh
  76:c:\users\guita\documents\daisytoolchain-0.3.3\windows\arm-none-eabi\include\c++\10.2.1\cmath **** 
  77:c:\users\guita\documents\daisytoolchain-0.3.3\windows\arm-none-eabi\include\c++\10.2.1\cmath **** extern "C++"
  78:c:\users\guita\documents\daisytoolchain-0.3.3\windows\arm-none-eabi\include\c++\10.2.1\cmath **** {
  79:c:\users\guita\documents\daisytoolchain-0.3.3\windows\arm-none-eabi\include\c++\10.2.1\cmath **** namespace std _GLIBCXX_VISIBILITY(default)
  80:c:\users\guita\documents\daisytoolchain-0.3.3\windows\arm-none-eabi\include\c++\10.2.1\cmath **** {
  81:c:\users\guita\documents\daisytoolchain-0.3.3\windows\arm-none-eabi\include\c++\10.2.1\cmath **** _GLIBCXX_BEGIN_NAMESPACE_VERSION
  82:c:\users\guita\documents\daisytoolchain-0.3.3\windows\arm-none-eabi\include\c++\10.2.1\cmath **** 
  83:c:\users\guita\documents\daisytoolchain-0.3.3\windows\arm-none-eabi\include\c++\10.2.1\cmath ****   using ::acos;
  84:c:\users\guita\documents\daisytoolchain-0.3.3\windows\arm-none-eabi\include\c++\10.2.1\cmath **** 
  85:c:\users\guita\documents\daisytoolchain-0.3.3\windows\arm-none-eabi\include\c++\10.2.1\cmath **** #ifndef __CORRECT_ISO_CPP_MATH_H_PROTO
  86:c:\users\guita\documents\daisytoolchain-0.3.3\windows\arm-none-eabi\include\c++\10.2.1\cmath ****   inline _GLIBCXX_CONSTEXPR float
  87:c:\users\guita\documents\daisytoolchain-0.3.3\windows\arm-none-eabi\include\c++\10.2.1\cmath ****   acos(float __x)
  88:c:\users\guita\documents\daisytoolchain-0.3.3\windows\arm-none-eabi\include\c++\10.2.1\cmath ****   { return __builtin_acosf(__x); }
  89:c:\users\guita\documents\daisytoolchain-0.3.3\windows\arm-none-eabi\include\c++\10.2.1\cmath **** 
  90:c:\users\guita\documents\daisytoolchain-0.3.3\windows\arm-none-eabi\include\c++\10.2.1\cmath ****   inline _GLIBCXX_CONSTEXPR long double
  91:c:\users\guita\documents\daisytoolchain-0.3.3\windows\arm-none-eabi\include\c++\10.2.1\cmath ****   acos(long double __x)
  92:c:\users\guita\documents\daisytoolchain-0.3.3\windows\arm-none-eabi\include\c++\10.2.1\cmath ****   { return __builtin_acosl(__x); }
  93:c:\users\guita\documents\daisytoolchain-0.3.3\windows\arm-none-eabi\include\c++\10.2.1\cmath **** #endif
  94:c:\users\guita\documents\daisytoolchain-0.3.3\windows\arm-none-eabi\include\c++\10.2.1\cmath **** 
  95:c:\users\guita\documents\daisytoolchain-0.3.3\windows\arm-none-eabi\include\c++\10.2.1\cmath ****   template<typename _Tp>
  96:c:\users\guita\documents\daisytoolchain-0.3.3\windows\arm-none-eabi\include\c++\10.2.1\cmath ****     inline _GLIBCXX_CONSTEXPR
  97:c:\users\guita\documents\daisytoolchain-0.3.3\windows\arm-none-eabi\include\c++\10.2.1\cmath ****     typename __gnu_cxx::__enable_if<__is_integer<_Tp>::__value, 
  98:c:\users\guita\documents\daisytoolchain-0.3.3\windows\arm-none-eabi\include\c++\10.2.1\cmath ****                                     double>::__type
  99:c:\users\guita\documents\daisytoolchain-0.3.3\windows\arm-none-eabi\include\c++\10.2.1\cmath ****     acos(_Tp __x)
ARM GAS  C:\Users\guita\AppData\Local\Temp\ccRE0rrt.s 			page 53


 100:c:\users\guita\documents\daisytoolchain-0.3.3\windows\arm-none-eabi\include\c++\10.2.1\cmath ****     { return __builtin_acos(__x); }
 101:c:\users\guita\documents\daisytoolchain-0.3.3\windows\arm-none-eabi\include\c++\10.2.1\cmath **** 
 102:c:\users\guita\documents\daisytoolchain-0.3.3\windows\arm-none-eabi\include\c++\10.2.1\cmath ****   using ::asin;
 103:c:\users\guita\documents\daisytoolchain-0.3.3\windows\arm-none-eabi\include\c++\10.2.1\cmath **** 
 104:c:\users\guita\documents\daisytoolchain-0.3.3\windows\arm-none-eabi\include\c++\10.2.1\cmath **** #ifndef __CORRECT_ISO_CPP_MATH_H_PROTO
 105:c:\users\guita\documents\daisytoolchain-0.3.3\windows\arm-none-eabi\include\c++\10.2.1\cmath ****   inline _GLIBCXX_CONSTEXPR float
 106:c:\users\guita\documents\daisytoolchain-0.3.3\windows\arm-none-eabi\include\c++\10.2.1\cmath ****   asin(float __x)
 107:c:\users\guita\documents\daisytoolchain-0.3.3\windows\arm-none-eabi\include\c++\10.2.1\cmath ****   { return __builtin_asinf(__x); }
 108:c:\users\guita\documents\daisytoolchain-0.3.3\windows\arm-none-eabi\include\c++\10.2.1\cmath **** 
 109:c:\users\guita\documents\daisytoolchain-0.3.3\windows\arm-none-eabi\include\c++\10.2.1\cmath ****   inline _GLIBCXX_CONSTEXPR long double
 110:c:\users\guita\documents\daisytoolchain-0.3.3\windows\arm-none-eabi\include\c++\10.2.1\cmath ****   asin(long double __x)
 111:c:\users\guita\documents\daisytoolchain-0.3.3\windows\arm-none-eabi\include\c++\10.2.1\cmath ****   { return __builtin_asinl(__x); }
 112:c:\users\guita\documents\daisytoolchain-0.3.3\windows\arm-none-eabi\include\c++\10.2.1\cmath **** #endif
 113:c:\users\guita\documents\daisytoolchain-0.3.3\windows\arm-none-eabi\include\c++\10.2.1\cmath **** 
 114:c:\users\guita\documents\daisytoolchain-0.3.3\windows\arm-none-eabi\include\c++\10.2.1\cmath ****   template<typename _Tp>
 115:c:\users\guita\documents\daisytoolchain-0.3.3\windows\arm-none-eabi\include\c++\10.2.1\cmath ****     inline _GLIBCXX_CONSTEXPR
 116:c:\users\guita\documents\daisytoolchain-0.3.3\windows\arm-none-eabi\include\c++\10.2.1\cmath ****     typename __gnu_cxx::__enable_if<__is_integer<_Tp>::__value,
 117:c:\users\guita\documents\daisytoolchain-0.3.3\windows\arm-none-eabi\include\c++\10.2.1\cmath ****                                     double>::__type
 118:c:\users\guita\documents\daisytoolchain-0.3.3\windows\arm-none-eabi\include\c++\10.2.1\cmath ****     asin(_Tp __x)
 119:c:\users\guita\documents\daisytoolchain-0.3.3\windows\arm-none-eabi\include\c++\10.2.1\cmath ****     { return __builtin_asin(__x); }
 120:c:\users\guita\documents\daisytoolchain-0.3.3\windows\arm-none-eabi\include\c++\10.2.1\cmath **** 
 121:c:\users\guita\documents\daisytoolchain-0.3.3\windows\arm-none-eabi\include\c++\10.2.1\cmath ****   using ::atan;
 122:c:\users\guita\documents\daisytoolchain-0.3.3\windows\arm-none-eabi\include\c++\10.2.1\cmath **** 
 123:c:\users\guita\documents\daisytoolchain-0.3.3\windows\arm-none-eabi\include\c++\10.2.1\cmath **** #ifndef __CORRECT_ISO_CPP_MATH_H_PROTO
 124:c:\users\guita\documents\daisytoolchain-0.3.3\windows\arm-none-eabi\include\c++\10.2.1\cmath ****   inline _GLIBCXX_CONSTEXPR float
 125:c:\users\guita\documents\daisytoolchain-0.3.3\windows\arm-none-eabi\include\c++\10.2.1\cmath ****   atan(float __x)
 126:c:\users\guita\documents\daisytoolchain-0.3.3\windows\arm-none-eabi\include\c++\10.2.1\cmath ****   { return __builtin_atanf(__x); }
 127:c:\users\guita\documents\daisytoolchain-0.3.3\windows\arm-none-eabi\include\c++\10.2.1\cmath **** 
 128:c:\users\guita\documents\daisytoolchain-0.3.3\windows\arm-none-eabi\include\c++\10.2.1\cmath ****   inline _GLIBCXX_CONSTEXPR long double
 129:c:\users\guita\documents\daisytoolchain-0.3.3\windows\arm-none-eabi\include\c++\10.2.1\cmath ****   atan(long double __x)
 130:c:\users\guita\documents\daisytoolchain-0.3.3\windows\arm-none-eabi\include\c++\10.2.1\cmath ****   { return __builtin_atanl(__x); }
 131:c:\users\guita\documents\daisytoolchain-0.3.3\windows\arm-none-eabi\include\c++\10.2.1\cmath **** #endif
 132:c:\users\guita\documents\daisytoolchain-0.3.3\windows\arm-none-eabi\include\c++\10.2.1\cmath **** 
 133:c:\users\guita\documents\daisytoolchain-0.3.3\windows\arm-none-eabi\include\c++\10.2.1\cmath ****   template<typename _Tp>
 134:c:\users\guita\documents\daisytoolchain-0.3.3\windows\arm-none-eabi\include\c++\10.2.1\cmath ****     inline _GLIBCXX_CONSTEXPR
 135:c:\users\guita\documents\daisytoolchain-0.3.3\windows\arm-none-eabi\include\c++\10.2.1\cmath ****     typename __gnu_cxx::__enable_if<__is_integer<_Tp>::__value,
 136:c:\users\guita\documents\daisytoolchain-0.3.3\windows\arm-none-eabi\include\c++\10.2.1\cmath ****                                     double>::__type
 137:c:\users\guita\documents\daisytoolchain-0.3.3\windows\arm-none-eabi\include\c++\10.2.1\cmath ****     atan(_Tp __x)
 138:c:\users\guita\documents\daisytoolchain-0.3.3\windows\arm-none-eabi\include\c++\10.2.1\cmath ****     { return __builtin_atan(__x); }
 139:c:\users\guita\documents\daisytoolchain-0.3.3\windows\arm-none-eabi\include\c++\10.2.1\cmath **** 
 140:c:\users\guita\documents\daisytoolchain-0.3.3\windows\arm-none-eabi\include\c++\10.2.1\cmath ****   using ::atan2;
 141:c:\users\guita\documents\daisytoolchain-0.3.3\windows\arm-none-eabi\include\c++\10.2.1\cmath **** 
 142:c:\users\guita\documents\daisytoolchain-0.3.3\windows\arm-none-eabi\include\c++\10.2.1\cmath **** #ifndef __CORRECT_ISO_CPP_MATH_H_PROTO
 143:c:\users\guita\documents\daisytoolchain-0.3.3\windows\arm-none-eabi\include\c++\10.2.1\cmath ****   inline _GLIBCXX_CONSTEXPR float
 144:c:\users\guita\documents\daisytoolchain-0.3.3\windows\arm-none-eabi\include\c++\10.2.1\cmath ****   atan2(float __y, float __x)
 145:c:\users\guita\documents\daisytoolchain-0.3.3\windows\arm-none-eabi\include\c++\10.2.1\cmath ****   { return __builtin_atan2f(__y, __x); }
 146:c:\users\guita\documents\daisytoolchain-0.3.3\windows\arm-none-eabi\include\c++\10.2.1\cmath **** 
 147:c:\users\guita\documents\daisytoolchain-0.3.3\windows\arm-none-eabi\include\c++\10.2.1\cmath ****   inline _GLIBCXX_CONSTEXPR long double
 148:c:\users\guita\documents\daisytoolchain-0.3.3\windows\arm-none-eabi\include\c++\10.2.1\cmath ****   atan2(long double __y, long double __x)
 149:c:\users\guita\documents\daisytoolchain-0.3.3\windows\arm-none-eabi\include\c++\10.2.1\cmath ****   { return __builtin_atan2l(__y, __x); }
 150:c:\users\guita\documents\daisytoolchain-0.3.3\windows\arm-none-eabi\include\c++\10.2.1\cmath **** #endif
 151:c:\users\guita\documents\daisytoolchain-0.3.3\windows\arm-none-eabi\include\c++\10.2.1\cmath **** 
 152:c:\users\guita\documents\daisytoolchain-0.3.3\windows\arm-none-eabi\include\c++\10.2.1\cmath ****   template<typename _Tp, typename _Up>
 153:c:\users\guita\documents\daisytoolchain-0.3.3\windows\arm-none-eabi\include\c++\10.2.1\cmath ****     inline _GLIBCXX_CONSTEXPR
 154:c:\users\guita\documents\daisytoolchain-0.3.3\windows\arm-none-eabi\include\c++\10.2.1\cmath ****     typename __gnu_cxx::__promote_2<_Tp, _Up>::__type
 155:c:\users\guita\documents\daisytoolchain-0.3.3\windows\arm-none-eabi\include\c++\10.2.1\cmath ****     atan2(_Tp __y, _Up __x)
 156:c:\users\guita\documents\daisytoolchain-0.3.3\windows\arm-none-eabi\include\c++\10.2.1\cmath ****     {
ARM GAS  C:\Users\guita\AppData\Local\Temp\ccRE0rrt.s 			page 54


 157:c:\users\guita\documents\daisytoolchain-0.3.3\windows\arm-none-eabi\include\c++\10.2.1\cmath ****       typedef typename __gnu_cxx::__promote_2<_Tp, _Up>::__type __type;
 158:c:\users\guita\documents\daisytoolchain-0.3.3\windows\arm-none-eabi\include\c++\10.2.1\cmath ****       return atan2(__type(__y), __type(__x));
 159:c:\users\guita\documents\daisytoolchain-0.3.3\windows\arm-none-eabi\include\c++\10.2.1\cmath ****     }
 160:c:\users\guita\documents\daisytoolchain-0.3.3\windows\arm-none-eabi\include\c++\10.2.1\cmath **** 
 161:c:\users\guita\documents\daisytoolchain-0.3.3\windows\arm-none-eabi\include\c++\10.2.1\cmath ****   using ::ceil;
 162:c:\users\guita\documents\daisytoolchain-0.3.3\windows\arm-none-eabi\include\c++\10.2.1\cmath **** 
 163:c:\users\guita\documents\daisytoolchain-0.3.3\windows\arm-none-eabi\include\c++\10.2.1\cmath **** #ifndef __CORRECT_ISO_CPP_MATH_H_PROTO
 164:c:\users\guita\documents\daisytoolchain-0.3.3\windows\arm-none-eabi\include\c++\10.2.1\cmath ****   inline _GLIBCXX_CONSTEXPR float
 165:c:\users\guita\documents\daisytoolchain-0.3.3\windows\arm-none-eabi\include\c++\10.2.1\cmath ****   ceil(float __x)
 166:c:\users\guita\documents\daisytoolchain-0.3.3\windows\arm-none-eabi\include\c++\10.2.1\cmath ****   { return __builtin_ceilf(__x); }
 167:c:\users\guita\documents\daisytoolchain-0.3.3\windows\arm-none-eabi\include\c++\10.2.1\cmath **** 
 168:c:\users\guita\documents\daisytoolchain-0.3.3\windows\arm-none-eabi\include\c++\10.2.1\cmath ****   inline _GLIBCXX_CONSTEXPR long double
 169:c:\users\guita\documents\daisytoolchain-0.3.3\windows\arm-none-eabi\include\c++\10.2.1\cmath ****   ceil(long double __x)
 170:c:\users\guita\documents\daisytoolchain-0.3.3\windows\arm-none-eabi\include\c++\10.2.1\cmath ****   { return __builtin_ceill(__x); }
 171:c:\users\guita\documents\daisytoolchain-0.3.3\windows\arm-none-eabi\include\c++\10.2.1\cmath **** #endif
 172:c:\users\guita\documents\daisytoolchain-0.3.3\windows\arm-none-eabi\include\c++\10.2.1\cmath **** 
 173:c:\users\guita\documents\daisytoolchain-0.3.3\windows\arm-none-eabi\include\c++\10.2.1\cmath ****   template<typename _Tp>
 174:c:\users\guita\documents\daisytoolchain-0.3.3\windows\arm-none-eabi\include\c++\10.2.1\cmath ****     inline _GLIBCXX_CONSTEXPR
 175:c:\users\guita\documents\daisytoolchain-0.3.3\windows\arm-none-eabi\include\c++\10.2.1\cmath ****     typename __gnu_cxx::__enable_if<__is_integer<_Tp>::__value, 
 176:c:\users\guita\documents\daisytoolchain-0.3.3\windows\arm-none-eabi\include\c++\10.2.1\cmath ****                                     double>::__type
 177:c:\users\guita\documents\daisytoolchain-0.3.3\windows\arm-none-eabi\include\c++\10.2.1\cmath ****     ceil(_Tp __x)
 178:c:\users\guita\documents\daisytoolchain-0.3.3\windows\arm-none-eabi\include\c++\10.2.1\cmath ****     { return __builtin_ceil(__x); }
 179:c:\users\guita\documents\daisytoolchain-0.3.3\windows\arm-none-eabi\include\c++\10.2.1\cmath **** 
 180:c:\users\guita\documents\daisytoolchain-0.3.3\windows\arm-none-eabi\include\c++\10.2.1\cmath ****   using ::cos;
 181:c:\users\guita\documents\daisytoolchain-0.3.3\windows\arm-none-eabi\include\c++\10.2.1\cmath **** 
 182:c:\users\guita\documents\daisytoolchain-0.3.3\windows\arm-none-eabi\include\c++\10.2.1\cmath **** #ifndef __CORRECT_ISO_CPP_MATH_H_PROTO
 183:c:\users\guita\documents\daisytoolchain-0.3.3\windows\arm-none-eabi\include\c++\10.2.1\cmath ****   inline _GLIBCXX_CONSTEXPR float
 184:c:\users\guita\documents\daisytoolchain-0.3.3\windows\arm-none-eabi\include\c++\10.2.1\cmath ****   cos(float __x)
 185:c:\users\guita\documents\daisytoolchain-0.3.3\windows\arm-none-eabi\include\c++\10.2.1\cmath ****   { return __builtin_cosf(__x); }
 186:c:\users\guita\documents\daisytoolchain-0.3.3\windows\arm-none-eabi\include\c++\10.2.1\cmath **** 
 187:c:\users\guita\documents\daisytoolchain-0.3.3\windows\arm-none-eabi\include\c++\10.2.1\cmath ****   inline _GLIBCXX_CONSTEXPR long double
 188:c:\users\guita\documents\daisytoolchain-0.3.3\windows\arm-none-eabi\include\c++\10.2.1\cmath ****   cos(long double __x)
 189:c:\users\guita\documents\daisytoolchain-0.3.3\windows\arm-none-eabi\include\c++\10.2.1\cmath ****   { return __builtin_cosl(__x); }
 190:c:\users\guita\documents\daisytoolchain-0.3.3\windows\arm-none-eabi\include\c++\10.2.1\cmath **** #endif
 191:c:\users\guita\documents\daisytoolchain-0.3.3\windows\arm-none-eabi\include\c++\10.2.1\cmath **** 
 192:c:\users\guita\documents\daisytoolchain-0.3.3\windows\arm-none-eabi\include\c++\10.2.1\cmath ****   template<typename _Tp>
 193:c:\users\guita\documents\daisytoolchain-0.3.3\windows\arm-none-eabi\include\c++\10.2.1\cmath ****     inline _GLIBCXX_CONSTEXPR
 194:c:\users\guita\documents\daisytoolchain-0.3.3\windows\arm-none-eabi\include\c++\10.2.1\cmath ****     typename __gnu_cxx::__enable_if<__is_integer<_Tp>::__value,
 195:c:\users\guita\documents\daisytoolchain-0.3.3\windows\arm-none-eabi\include\c++\10.2.1\cmath ****                                     double>::__type
 196:c:\users\guita\documents\daisytoolchain-0.3.3\windows\arm-none-eabi\include\c++\10.2.1\cmath ****     cos(_Tp __x)
 197:c:\users\guita\documents\daisytoolchain-0.3.3\windows\arm-none-eabi\include\c++\10.2.1\cmath ****     { return __builtin_cos(__x); }
 198:c:\users\guita\documents\daisytoolchain-0.3.3\windows\arm-none-eabi\include\c++\10.2.1\cmath **** 
 199:c:\users\guita\documents\daisytoolchain-0.3.3\windows\arm-none-eabi\include\c++\10.2.1\cmath ****   using ::cosh;
 200:c:\users\guita\documents\daisytoolchain-0.3.3\windows\arm-none-eabi\include\c++\10.2.1\cmath **** 
 201:c:\users\guita\documents\daisytoolchain-0.3.3\windows\arm-none-eabi\include\c++\10.2.1\cmath **** #ifndef __CORRECT_ISO_CPP_MATH_H_PROTO
 202:c:\users\guita\documents\daisytoolchain-0.3.3\windows\arm-none-eabi\include\c++\10.2.1\cmath ****   inline _GLIBCXX_CONSTEXPR float
 203:c:\users\guita\documents\daisytoolchain-0.3.3\windows\arm-none-eabi\include\c++\10.2.1\cmath ****   cosh(float __x)
 204:c:\users\guita\documents\daisytoolchain-0.3.3\windows\arm-none-eabi\include\c++\10.2.1\cmath ****   { return __builtin_coshf(__x); }
 205:c:\users\guita\documents\daisytoolchain-0.3.3\windows\arm-none-eabi\include\c++\10.2.1\cmath **** 
 206:c:\users\guita\documents\daisytoolchain-0.3.3\windows\arm-none-eabi\include\c++\10.2.1\cmath ****   inline _GLIBCXX_CONSTEXPR long double
 207:c:\users\guita\documents\daisytoolchain-0.3.3\windows\arm-none-eabi\include\c++\10.2.1\cmath ****   cosh(long double __x)
 208:c:\users\guita\documents\daisytoolchain-0.3.3\windows\arm-none-eabi\include\c++\10.2.1\cmath ****   { return __builtin_coshl(__x); }
 209:c:\users\guita\documents\daisytoolchain-0.3.3\windows\arm-none-eabi\include\c++\10.2.1\cmath **** #endif
 210:c:\users\guita\documents\daisytoolchain-0.3.3\windows\arm-none-eabi\include\c++\10.2.1\cmath **** 
 211:c:\users\guita\documents\daisytoolchain-0.3.3\windows\arm-none-eabi\include\c++\10.2.1\cmath ****   template<typename _Tp>
 212:c:\users\guita\documents\daisytoolchain-0.3.3\windows\arm-none-eabi\include\c++\10.2.1\cmath ****     inline _GLIBCXX_CONSTEXPR
 213:c:\users\guita\documents\daisytoolchain-0.3.3\windows\arm-none-eabi\include\c++\10.2.1\cmath ****     typename __gnu_cxx::__enable_if<__is_integer<_Tp>::__value,
ARM GAS  C:\Users\guita\AppData\Local\Temp\ccRE0rrt.s 			page 55


 214:c:\users\guita\documents\daisytoolchain-0.3.3\windows\arm-none-eabi\include\c++\10.2.1\cmath ****                                     double>::__type
 215:c:\users\guita\documents\daisytoolchain-0.3.3\windows\arm-none-eabi\include\c++\10.2.1\cmath ****     cosh(_Tp __x)
 216:c:\users\guita\documents\daisytoolchain-0.3.3\windows\arm-none-eabi\include\c++\10.2.1\cmath ****     { return __builtin_cosh(__x); }
 217:c:\users\guita\documents\daisytoolchain-0.3.3\windows\arm-none-eabi\include\c++\10.2.1\cmath **** 
 218:c:\users\guita\documents\daisytoolchain-0.3.3\windows\arm-none-eabi\include\c++\10.2.1\cmath ****   using ::exp;
 219:c:\users\guita\documents\daisytoolchain-0.3.3\windows\arm-none-eabi\include\c++\10.2.1\cmath **** 
 220:c:\users\guita\documents\daisytoolchain-0.3.3\windows\arm-none-eabi\include\c++\10.2.1\cmath **** #ifndef __CORRECT_ISO_CPP_MATH_H_PROTO
 221:c:\users\guita\documents\daisytoolchain-0.3.3\windows\arm-none-eabi\include\c++\10.2.1\cmath ****   inline _GLIBCXX_CONSTEXPR float
 222:c:\users\guita\documents\daisytoolchain-0.3.3\windows\arm-none-eabi\include\c++\10.2.1\cmath ****   exp(float __x)
 223:c:\users\guita\documents\daisytoolchain-0.3.3\windows\arm-none-eabi\include\c++\10.2.1\cmath ****   { return __builtin_expf(__x); }
 224:c:\users\guita\documents\daisytoolchain-0.3.3\windows\arm-none-eabi\include\c++\10.2.1\cmath **** 
 225:c:\users\guita\documents\daisytoolchain-0.3.3\windows\arm-none-eabi\include\c++\10.2.1\cmath ****   inline _GLIBCXX_CONSTEXPR long double
 226:c:\users\guita\documents\daisytoolchain-0.3.3\windows\arm-none-eabi\include\c++\10.2.1\cmath ****   exp(long double __x)
 227:c:\users\guita\documents\daisytoolchain-0.3.3\windows\arm-none-eabi\include\c++\10.2.1\cmath ****   { return __builtin_expl(__x); }
 228:c:\users\guita\documents\daisytoolchain-0.3.3\windows\arm-none-eabi\include\c++\10.2.1\cmath **** #endif
 229:c:\users\guita\documents\daisytoolchain-0.3.3\windows\arm-none-eabi\include\c++\10.2.1\cmath **** 
 230:c:\users\guita\documents\daisytoolchain-0.3.3\windows\arm-none-eabi\include\c++\10.2.1\cmath ****   template<typename _Tp>
 231:c:\users\guita\documents\daisytoolchain-0.3.3\windows\arm-none-eabi\include\c++\10.2.1\cmath ****     inline _GLIBCXX_CONSTEXPR
 232:c:\users\guita\documents\daisytoolchain-0.3.3\windows\arm-none-eabi\include\c++\10.2.1\cmath ****     typename __gnu_cxx::__enable_if<__is_integer<_Tp>::__value,
 233:c:\users\guita\documents\daisytoolchain-0.3.3\windows\arm-none-eabi\include\c++\10.2.1\cmath ****                                     double>::__type
 234:c:\users\guita\documents\daisytoolchain-0.3.3\windows\arm-none-eabi\include\c++\10.2.1\cmath ****     exp(_Tp __x)
 235:c:\users\guita\documents\daisytoolchain-0.3.3\windows\arm-none-eabi\include\c++\10.2.1\cmath ****     { return __builtin_exp(__x); }
 236:c:\users\guita\documents\daisytoolchain-0.3.3\windows\arm-none-eabi\include\c++\10.2.1\cmath **** 
 237:c:\users\guita\documents\daisytoolchain-0.3.3\windows\arm-none-eabi\include\c++\10.2.1\cmath ****   using ::fabs;
 238:c:\users\guita\documents\daisytoolchain-0.3.3\windows\arm-none-eabi\include\c++\10.2.1\cmath **** 
 239:c:\users\guita\documents\daisytoolchain-0.3.3\windows\arm-none-eabi\include\c++\10.2.1\cmath **** #ifndef __CORRECT_ISO_CPP_MATH_H_PROTO
 240:c:\users\guita\documents\daisytoolchain-0.3.3\windows\arm-none-eabi\include\c++\10.2.1\cmath ****   inline _GLIBCXX_CONSTEXPR float
 241:c:\users\guita\documents\daisytoolchain-0.3.3\windows\arm-none-eabi\include\c++\10.2.1\cmath ****   fabs(float __x)
 242:c:\users\guita\documents\daisytoolchain-0.3.3\windows\arm-none-eabi\include\c++\10.2.1\cmath ****   { return __builtin_fabsf(__x); }
 243:c:\users\guita\documents\daisytoolchain-0.3.3\windows\arm-none-eabi\include\c++\10.2.1\cmath **** 
 244:c:\users\guita\documents\daisytoolchain-0.3.3\windows\arm-none-eabi\include\c++\10.2.1\cmath ****   inline _GLIBCXX_CONSTEXPR long double
 245:c:\users\guita\documents\daisytoolchain-0.3.3\windows\arm-none-eabi\include\c++\10.2.1\cmath ****   fabs(long double __x)
 246:c:\users\guita\documents\daisytoolchain-0.3.3\windows\arm-none-eabi\include\c++\10.2.1\cmath ****   { return __builtin_fabsl(__x); }
 247:c:\users\guita\documents\daisytoolchain-0.3.3\windows\arm-none-eabi\include\c++\10.2.1\cmath **** #endif
 248:c:\users\guita\documents\daisytoolchain-0.3.3\windows\arm-none-eabi\include\c++\10.2.1\cmath **** 
 249:c:\users\guita\documents\daisytoolchain-0.3.3\windows\arm-none-eabi\include\c++\10.2.1\cmath ****   template<typename _Tp>
 250:c:\users\guita\documents\daisytoolchain-0.3.3\windows\arm-none-eabi\include\c++\10.2.1\cmath ****     inline _GLIBCXX_CONSTEXPR
 251:c:\users\guita\documents\daisytoolchain-0.3.3\windows\arm-none-eabi\include\c++\10.2.1\cmath ****     typename __gnu_cxx::__enable_if<__is_integer<_Tp>::__value,
 252:c:\users\guita\documents\daisytoolchain-0.3.3\windows\arm-none-eabi\include\c++\10.2.1\cmath ****                                     double>::__type
 253:c:\users\guita\documents\daisytoolchain-0.3.3\windows\arm-none-eabi\include\c++\10.2.1\cmath ****     fabs(_Tp __x)
 254:c:\users\guita\documents\daisytoolchain-0.3.3\windows\arm-none-eabi\include\c++\10.2.1\cmath ****     { return __builtin_fabs(__x); }
 255:c:\users\guita\documents\daisytoolchain-0.3.3\windows\arm-none-eabi\include\c++\10.2.1\cmath **** 
 256:c:\users\guita\documents\daisytoolchain-0.3.3\windows\arm-none-eabi\include\c++\10.2.1\cmath ****   using ::floor;
 257:c:\users\guita\documents\daisytoolchain-0.3.3\windows\arm-none-eabi\include\c++\10.2.1\cmath **** 
 258:c:\users\guita\documents\daisytoolchain-0.3.3\windows\arm-none-eabi\include\c++\10.2.1\cmath **** #ifndef __CORRECT_ISO_CPP_MATH_H_PROTO
 259:c:\users\guita\documents\daisytoolchain-0.3.3\windows\arm-none-eabi\include\c++\10.2.1\cmath ****   inline _GLIBCXX_CONSTEXPR float
 260:c:\users\guita\documents\daisytoolchain-0.3.3\windows\arm-none-eabi\include\c++\10.2.1\cmath ****   floor(float __x)
 261:c:\users\guita\documents\daisytoolchain-0.3.3\windows\arm-none-eabi\include\c++\10.2.1\cmath ****   { return __builtin_floorf(__x); }
 262:c:\users\guita\documents\daisytoolchain-0.3.3\windows\arm-none-eabi\include\c++\10.2.1\cmath **** 
 263:c:\users\guita\documents\daisytoolchain-0.3.3\windows\arm-none-eabi\include\c++\10.2.1\cmath ****   inline _GLIBCXX_CONSTEXPR long double
 264:c:\users\guita\documents\daisytoolchain-0.3.3\windows\arm-none-eabi\include\c++\10.2.1\cmath ****   floor(long double __x)
 265:c:\users\guita\documents\daisytoolchain-0.3.3\windows\arm-none-eabi\include\c++\10.2.1\cmath ****   { return __builtin_floorl(__x); }
 266:c:\users\guita\documents\daisytoolchain-0.3.3\windows\arm-none-eabi\include\c++\10.2.1\cmath **** #endif
 267:c:\users\guita\documents\daisytoolchain-0.3.3\windows\arm-none-eabi\include\c++\10.2.1\cmath **** 
 268:c:\users\guita\documents\daisytoolchain-0.3.3\windows\arm-none-eabi\include\c++\10.2.1\cmath ****   template<typename _Tp>
 269:c:\users\guita\documents\daisytoolchain-0.3.3\windows\arm-none-eabi\include\c++\10.2.1\cmath ****     inline _GLIBCXX_CONSTEXPR
 270:c:\users\guita\documents\daisytoolchain-0.3.3\windows\arm-none-eabi\include\c++\10.2.1\cmath ****     typename __gnu_cxx::__enable_if<__is_integer<_Tp>::__value,
ARM GAS  C:\Users\guita\AppData\Local\Temp\ccRE0rrt.s 			page 56


 271:c:\users\guita\documents\daisytoolchain-0.3.3\windows\arm-none-eabi\include\c++\10.2.1\cmath ****                                     double>::__type
 272:c:\users\guita\documents\daisytoolchain-0.3.3\windows\arm-none-eabi\include\c++\10.2.1\cmath ****     floor(_Tp __x)
 273:c:\users\guita\documents\daisytoolchain-0.3.3\windows\arm-none-eabi\include\c++\10.2.1\cmath ****     { return __builtin_floor(__x); }
 274:c:\users\guita\documents\daisytoolchain-0.3.3\windows\arm-none-eabi\include\c++\10.2.1\cmath **** 
 275:c:\users\guita\documents\daisytoolchain-0.3.3\windows\arm-none-eabi\include\c++\10.2.1\cmath ****   using ::fmod;
 276:c:\users\guita\documents\daisytoolchain-0.3.3\windows\arm-none-eabi\include\c++\10.2.1\cmath **** 
 277:c:\users\guita\documents\daisytoolchain-0.3.3\windows\arm-none-eabi\include\c++\10.2.1\cmath **** #ifndef __CORRECT_ISO_CPP_MATH_H_PROTO
 278:c:\users\guita\documents\daisytoolchain-0.3.3\windows\arm-none-eabi\include\c++\10.2.1\cmath ****   inline _GLIBCXX_CONSTEXPR float
 279:c:\users\guita\documents\daisytoolchain-0.3.3\windows\arm-none-eabi\include\c++\10.2.1\cmath ****   fmod(float __x, float __y)
 280:c:\users\guita\documents\daisytoolchain-0.3.3\windows\arm-none-eabi\include\c++\10.2.1\cmath ****   { return __builtin_fmodf(__x, __y); }
 281:c:\users\guita\documents\daisytoolchain-0.3.3\windows\arm-none-eabi\include\c++\10.2.1\cmath **** 
 282:c:\users\guita\documents\daisytoolchain-0.3.3\windows\arm-none-eabi\include\c++\10.2.1\cmath ****   inline _GLIBCXX_CONSTEXPR long double
 283:c:\users\guita\documents\daisytoolchain-0.3.3\windows\arm-none-eabi\include\c++\10.2.1\cmath ****   fmod(long double __x, long double __y)
 284:c:\users\guita\documents\daisytoolchain-0.3.3\windows\arm-none-eabi\include\c++\10.2.1\cmath ****   { return __builtin_fmodl(__x, __y); }
 285:c:\users\guita\documents\daisytoolchain-0.3.3\windows\arm-none-eabi\include\c++\10.2.1\cmath **** #endif
 286:c:\users\guita\documents\daisytoolchain-0.3.3\windows\arm-none-eabi\include\c++\10.2.1\cmath **** 
 287:c:\users\guita\documents\daisytoolchain-0.3.3\windows\arm-none-eabi\include\c++\10.2.1\cmath ****   template<typename _Tp, typename _Up>
 288:c:\users\guita\documents\daisytoolchain-0.3.3\windows\arm-none-eabi\include\c++\10.2.1\cmath ****     inline _GLIBCXX_CONSTEXPR
 289:c:\users\guita\documents\daisytoolchain-0.3.3\windows\arm-none-eabi\include\c++\10.2.1\cmath ****     typename __gnu_cxx::__promote_2<_Tp, _Up>::__type
 290:c:\users\guita\documents\daisytoolchain-0.3.3\windows\arm-none-eabi\include\c++\10.2.1\cmath ****     fmod(_Tp __x, _Up __y)
 291:c:\users\guita\documents\daisytoolchain-0.3.3\windows\arm-none-eabi\include\c++\10.2.1\cmath ****     {
 292:c:\users\guita\documents\daisytoolchain-0.3.3\windows\arm-none-eabi\include\c++\10.2.1\cmath ****       typedef typename __gnu_cxx::__promote_2<_Tp, _Up>::__type __type;
 293:c:\users\guita\documents\daisytoolchain-0.3.3\windows\arm-none-eabi\include\c++\10.2.1\cmath ****       return fmod(__type(__x), __type(__y));
 294:c:\users\guita\documents\daisytoolchain-0.3.3\windows\arm-none-eabi\include\c++\10.2.1\cmath ****     }
 295:c:\users\guita\documents\daisytoolchain-0.3.3\windows\arm-none-eabi\include\c++\10.2.1\cmath **** 
 296:c:\users\guita\documents\daisytoolchain-0.3.3\windows\arm-none-eabi\include\c++\10.2.1\cmath ****   using ::frexp;
 297:c:\users\guita\documents\daisytoolchain-0.3.3\windows\arm-none-eabi\include\c++\10.2.1\cmath **** 
 298:c:\users\guita\documents\daisytoolchain-0.3.3\windows\arm-none-eabi\include\c++\10.2.1\cmath **** #ifndef __CORRECT_ISO_CPP_MATH_H_PROTO
 299:c:\users\guita\documents\daisytoolchain-0.3.3\windows\arm-none-eabi\include\c++\10.2.1\cmath ****   inline float
 300:c:\users\guita\documents\daisytoolchain-0.3.3\windows\arm-none-eabi\include\c++\10.2.1\cmath ****   frexp(float __x, int* __exp)
 301:c:\users\guita\documents\daisytoolchain-0.3.3\windows\arm-none-eabi\include\c++\10.2.1\cmath ****   { return __builtin_frexpf(__x, __exp); }
 302:c:\users\guita\documents\daisytoolchain-0.3.3\windows\arm-none-eabi\include\c++\10.2.1\cmath **** 
 303:c:\users\guita\documents\daisytoolchain-0.3.3\windows\arm-none-eabi\include\c++\10.2.1\cmath ****   inline long double
 304:c:\users\guita\documents\daisytoolchain-0.3.3\windows\arm-none-eabi\include\c++\10.2.1\cmath ****   frexp(long double __x, int* __exp)
 305:c:\users\guita\documents\daisytoolchain-0.3.3\windows\arm-none-eabi\include\c++\10.2.1\cmath ****   { return __builtin_frexpl(__x, __exp); }
 306:c:\users\guita\documents\daisytoolchain-0.3.3\windows\arm-none-eabi\include\c++\10.2.1\cmath **** #endif
 307:c:\users\guita\documents\daisytoolchain-0.3.3\windows\arm-none-eabi\include\c++\10.2.1\cmath **** 
 308:c:\users\guita\documents\daisytoolchain-0.3.3\windows\arm-none-eabi\include\c++\10.2.1\cmath ****   template<typename _Tp>
 309:c:\users\guita\documents\daisytoolchain-0.3.3\windows\arm-none-eabi\include\c++\10.2.1\cmath ****     inline _GLIBCXX_CONSTEXPR
 310:c:\users\guita\documents\daisytoolchain-0.3.3\windows\arm-none-eabi\include\c++\10.2.1\cmath ****     typename __gnu_cxx::__enable_if<__is_integer<_Tp>::__value, 
 311:c:\users\guita\documents\daisytoolchain-0.3.3\windows\arm-none-eabi\include\c++\10.2.1\cmath ****                                     double>::__type
 312:c:\users\guita\documents\daisytoolchain-0.3.3\windows\arm-none-eabi\include\c++\10.2.1\cmath ****     frexp(_Tp __x, int* __exp)
 313:c:\users\guita\documents\daisytoolchain-0.3.3\windows\arm-none-eabi\include\c++\10.2.1\cmath ****     { return __builtin_frexp(__x, __exp); }
 314:c:\users\guita\documents\daisytoolchain-0.3.3\windows\arm-none-eabi\include\c++\10.2.1\cmath **** 
 315:c:\users\guita\documents\daisytoolchain-0.3.3\windows\arm-none-eabi\include\c++\10.2.1\cmath ****   using ::ldexp;
 316:c:\users\guita\documents\daisytoolchain-0.3.3\windows\arm-none-eabi\include\c++\10.2.1\cmath **** 
 317:c:\users\guita\documents\daisytoolchain-0.3.3\windows\arm-none-eabi\include\c++\10.2.1\cmath **** #ifndef __CORRECT_ISO_CPP_MATH_H_PROTO
 318:c:\users\guita\documents\daisytoolchain-0.3.3\windows\arm-none-eabi\include\c++\10.2.1\cmath ****   inline _GLIBCXX_CONSTEXPR float
 319:c:\users\guita\documents\daisytoolchain-0.3.3\windows\arm-none-eabi\include\c++\10.2.1\cmath ****   ldexp(float __x, int __exp)
 320:c:\users\guita\documents\daisytoolchain-0.3.3\windows\arm-none-eabi\include\c++\10.2.1\cmath ****   { return __builtin_ldexpf(__x, __exp); }
 321:c:\users\guita\documents\daisytoolchain-0.3.3\windows\arm-none-eabi\include\c++\10.2.1\cmath **** 
 322:c:\users\guita\documents\daisytoolchain-0.3.3\windows\arm-none-eabi\include\c++\10.2.1\cmath ****   inline _GLIBCXX_CONSTEXPR long double
 323:c:\users\guita\documents\daisytoolchain-0.3.3\windows\arm-none-eabi\include\c++\10.2.1\cmath ****   ldexp(long double __x, int __exp)
 324:c:\users\guita\documents\daisytoolchain-0.3.3\windows\arm-none-eabi\include\c++\10.2.1\cmath ****   { return __builtin_ldexpl(__x, __exp); }
 325:c:\users\guita\documents\daisytoolchain-0.3.3\windows\arm-none-eabi\include\c++\10.2.1\cmath **** #endif
 326:c:\users\guita\documents\daisytoolchain-0.3.3\windows\arm-none-eabi\include\c++\10.2.1\cmath **** 
 327:c:\users\guita\documents\daisytoolchain-0.3.3\windows\arm-none-eabi\include\c++\10.2.1\cmath ****   template<typename _Tp>
ARM GAS  C:\Users\guita\AppData\Local\Temp\ccRE0rrt.s 			page 57


 328:c:\users\guita\documents\daisytoolchain-0.3.3\windows\arm-none-eabi\include\c++\10.2.1\cmath ****     inline _GLIBCXX_CONSTEXPR
 329:c:\users\guita\documents\daisytoolchain-0.3.3\windows\arm-none-eabi\include\c++\10.2.1\cmath ****     typename __gnu_cxx::__enable_if<__is_integer<_Tp>::__value, 
 330:c:\users\guita\documents\daisytoolchain-0.3.3\windows\arm-none-eabi\include\c++\10.2.1\cmath ****                                     double>::__type
 331:c:\users\guita\documents\daisytoolchain-0.3.3\windows\arm-none-eabi\include\c++\10.2.1\cmath ****     ldexp(_Tp __x, int __exp)
 332:c:\users\guita\documents\daisytoolchain-0.3.3\windows\arm-none-eabi\include\c++\10.2.1\cmath ****     { return __builtin_ldexp(__x, __exp); }
 333:c:\users\guita\documents\daisytoolchain-0.3.3\windows\arm-none-eabi\include\c++\10.2.1\cmath **** 
 334:c:\users\guita\documents\daisytoolchain-0.3.3\windows\arm-none-eabi\include\c++\10.2.1\cmath ****   using ::log;
 335:c:\users\guita\documents\daisytoolchain-0.3.3\windows\arm-none-eabi\include\c++\10.2.1\cmath **** 
 336:c:\users\guita\documents\daisytoolchain-0.3.3\windows\arm-none-eabi\include\c++\10.2.1\cmath **** #ifndef __CORRECT_ISO_CPP_MATH_H_PROTO
 337:c:\users\guita\documents\daisytoolchain-0.3.3\windows\arm-none-eabi\include\c++\10.2.1\cmath ****   inline _GLIBCXX_CONSTEXPR float
 338:c:\users\guita\documents\daisytoolchain-0.3.3\windows\arm-none-eabi\include\c++\10.2.1\cmath ****   log(float __x)
 339:c:\users\guita\documents\daisytoolchain-0.3.3\windows\arm-none-eabi\include\c++\10.2.1\cmath ****   { return __builtin_logf(__x); }
 340:c:\users\guita\documents\daisytoolchain-0.3.3\windows\arm-none-eabi\include\c++\10.2.1\cmath **** 
 341:c:\users\guita\documents\daisytoolchain-0.3.3\windows\arm-none-eabi\include\c++\10.2.1\cmath ****   inline _GLIBCXX_CONSTEXPR long double
 342:c:\users\guita\documents\daisytoolchain-0.3.3\windows\arm-none-eabi\include\c++\10.2.1\cmath ****   log(long double __x)
 343:c:\users\guita\documents\daisytoolchain-0.3.3\windows\arm-none-eabi\include\c++\10.2.1\cmath ****   { return __builtin_logl(__x); }
 344:c:\users\guita\documents\daisytoolchain-0.3.3\windows\arm-none-eabi\include\c++\10.2.1\cmath **** #endif
 345:c:\users\guita\documents\daisytoolchain-0.3.3\windows\arm-none-eabi\include\c++\10.2.1\cmath **** 
 346:c:\users\guita\documents\daisytoolchain-0.3.3\windows\arm-none-eabi\include\c++\10.2.1\cmath ****   template<typename _Tp>
 347:c:\users\guita\documents\daisytoolchain-0.3.3\windows\arm-none-eabi\include\c++\10.2.1\cmath ****     inline _GLIBCXX_CONSTEXPR
 348:c:\users\guita\documents\daisytoolchain-0.3.3\windows\arm-none-eabi\include\c++\10.2.1\cmath ****     typename __gnu_cxx::__enable_if<__is_integer<_Tp>::__value, 
 349:c:\users\guita\documents\daisytoolchain-0.3.3\windows\arm-none-eabi\include\c++\10.2.1\cmath ****                                     double>::__type
 350:c:\users\guita\documents\daisytoolchain-0.3.3\windows\arm-none-eabi\include\c++\10.2.1\cmath ****     log(_Tp __x)
 351:c:\users\guita\documents\daisytoolchain-0.3.3\windows\arm-none-eabi\include\c++\10.2.1\cmath ****     { return __builtin_log(__x); }
 352:c:\users\guita\documents\daisytoolchain-0.3.3\windows\arm-none-eabi\include\c++\10.2.1\cmath **** 
 353:c:\users\guita\documents\daisytoolchain-0.3.3\windows\arm-none-eabi\include\c++\10.2.1\cmath ****   using ::log10;
 354:c:\users\guita\documents\daisytoolchain-0.3.3\windows\arm-none-eabi\include\c++\10.2.1\cmath **** 
 355:c:\users\guita\documents\daisytoolchain-0.3.3\windows\arm-none-eabi\include\c++\10.2.1\cmath **** #ifndef __CORRECT_ISO_CPP_MATH_H_PROTO
 356:c:\users\guita\documents\daisytoolchain-0.3.3\windows\arm-none-eabi\include\c++\10.2.1\cmath ****   inline _GLIBCXX_CONSTEXPR float
 357:c:\users\guita\documents\daisytoolchain-0.3.3\windows\arm-none-eabi\include\c++\10.2.1\cmath ****   log10(float __x)
 358:c:\users\guita\documents\daisytoolchain-0.3.3\windows\arm-none-eabi\include\c++\10.2.1\cmath ****   { return __builtin_log10f(__x); }
 359:c:\users\guita\documents\daisytoolchain-0.3.3\windows\arm-none-eabi\include\c++\10.2.1\cmath **** 
 360:c:\users\guita\documents\daisytoolchain-0.3.3\windows\arm-none-eabi\include\c++\10.2.1\cmath ****   inline _GLIBCXX_CONSTEXPR long double
 361:c:\users\guita\documents\daisytoolchain-0.3.3\windows\arm-none-eabi\include\c++\10.2.1\cmath ****   log10(long double __x)
 362:c:\users\guita\documents\daisytoolchain-0.3.3\windows\arm-none-eabi\include\c++\10.2.1\cmath ****   { return __builtin_log10l(__x); }
 363:c:\users\guita\documents\daisytoolchain-0.3.3\windows\arm-none-eabi\include\c++\10.2.1\cmath **** #endif
 364:c:\users\guita\documents\daisytoolchain-0.3.3\windows\arm-none-eabi\include\c++\10.2.1\cmath **** 
 365:c:\users\guita\documents\daisytoolchain-0.3.3\windows\arm-none-eabi\include\c++\10.2.1\cmath ****   template<typename _Tp>
 366:c:\users\guita\documents\daisytoolchain-0.3.3\windows\arm-none-eabi\include\c++\10.2.1\cmath ****     inline _GLIBCXX_CONSTEXPR
 367:c:\users\guita\documents\daisytoolchain-0.3.3\windows\arm-none-eabi\include\c++\10.2.1\cmath ****     typename __gnu_cxx::__enable_if<__is_integer<_Tp>::__value,
 368:c:\users\guita\documents\daisytoolchain-0.3.3\windows\arm-none-eabi\include\c++\10.2.1\cmath ****                                     double>::__type
 369:c:\users\guita\documents\daisytoolchain-0.3.3\windows\arm-none-eabi\include\c++\10.2.1\cmath ****     log10(_Tp __x)
 370:c:\users\guita\documents\daisytoolchain-0.3.3\windows\arm-none-eabi\include\c++\10.2.1\cmath ****     { return __builtin_log10(__x); }
 371:c:\users\guita\documents\daisytoolchain-0.3.3\windows\arm-none-eabi\include\c++\10.2.1\cmath **** 
 372:c:\users\guita\documents\daisytoolchain-0.3.3\windows\arm-none-eabi\include\c++\10.2.1\cmath ****   using ::modf;
 373:c:\users\guita\documents\daisytoolchain-0.3.3\windows\arm-none-eabi\include\c++\10.2.1\cmath **** 
 374:c:\users\guita\documents\daisytoolchain-0.3.3\windows\arm-none-eabi\include\c++\10.2.1\cmath **** #ifndef __CORRECT_ISO_CPP_MATH_H_PROTO
 375:c:\users\guita\documents\daisytoolchain-0.3.3\windows\arm-none-eabi\include\c++\10.2.1\cmath ****   inline float
 376:c:\users\guita\documents\daisytoolchain-0.3.3\windows\arm-none-eabi\include\c++\10.2.1\cmath ****   modf(float __x, float* __iptr)
 377:c:\users\guita\documents\daisytoolchain-0.3.3\windows\arm-none-eabi\include\c++\10.2.1\cmath ****   { return __builtin_modff(__x, __iptr); }
 378:c:\users\guita\documents\daisytoolchain-0.3.3\windows\arm-none-eabi\include\c++\10.2.1\cmath **** 
 379:c:\users\guita\documents\daisytoolchain-0.3.3\windows\arm-none-eabi\include\c++\10.2.1\cmath ****   inline long double
 380:c:\users\guita\documents\daisytoolchain-0.3.3\windows\arm-none-eabi\include\c++\10.2.1\cmath ****   modf(long double __x, long double* __iptr)
 381:c:\users\guita\documents\daisytoolchain-0.3.3\windows\arm-none-eabi\include\c++\10.2.1\cmath ****   { return __builtin_modfl(__x, __iptr); }
 382:c:\users\guita\documents\daisytoolchain-0.3.3\windows\arm-none-eabi\include\c++\10.2.1\cmath **** #endif
 383:c:\users\guita\documents\daisytoolchain-0.3.3\windows\arm-none-eabi\include\c++\10.2.1\cmath **** 
 384:c:\users\guita\documents\daisytoolchain-0.3.3\windows\arm-none-eabi\include\c++\10.2.1\cmath ****   using ::pow;
ARM GAS  C:\Users\guita\AppData\Local\Temp\ccRE0rrt.s 			page 58


 385:c:\users\guita\documents\daisytoolchain-0.3.3\windows\arm-none-eabi\include\c++\10.2.1\cmath **** 
 386:c:\users\guita\documents\daisytoolchain-0.3.3\windows\arm-none-eabi\include\c++\10.2.1\cmath **** #ifndef __CORRECT_ISO_CPP_MATH_H_PROTO
 387:c:\users\guita\documents\daisytoolchain-0.3.3\windows\arm-none-eabi\include\c++\10.2.1\cmath ****   inline _GLIBCXX_CONSTEXPR float
 388:c:\users\guita\documents\daisytoolchain-0.3.3\windows\arm-none-eabi\include\c++\10.2.1\cmath ****   pow(float __x, float __y)
 389:c:\users\guita\documents\daisytoolchain-0.3.3\windows\arm-none-eabi\include\c++\10.2.1\cmath ****   { return __builtin_powf(__x, __y); }
 390:c:\users\guita\documents\daisytoolchain-0.3.3\windows\arm-none-eabi\include\c++\10.2.1\cmath **** 
 391:c:\users\guita\documents\daisytoolchain-0.3.3\windows\arm-none-eabi\include\c++\10.2.1\cmath ****   inline _GLIBCXX_CONSTEXPR long double
 392:c:\users\guita\documents\daisytoolchain-0.3.3\windows\arm-none-eabi\include\c++\10.2.1\cmath ****   pow(long double __x, long double __y)
 393:c:\users\guita\documents\daisytoolchain-0.3.3\windows\arm-none-eabi\include\c++\10.2.1\cmath ****   { return __builtin_powl(__x, __y); }
 394:c:\users\guita\documents\daisytoolchain-0.3.3\windows\arm-none-eabi\include\c++\10.2.1\cmath **** 
 395:c:\users\guita\documents\daisytoolchain-0.3.3\windows\arm-none-eabi\include\c++\10.2.1\cmath **** #if __cplusplus < 201103L
 396:c:\users\guita\documents\daisytoolchain-0.3.3\windows\arm-none-eabi\include\c++\10.2.1\cmath ****   // _GLIBCXX_RESOLVE_LIB_DEFECTS
 397:c:\users\guita\documents\daisytoolchain-0.3.3\windows\arm-none-eabi\include\c++\10.2.1\cmath ****   // DR 550. What should the return type of pow(float,int) be?
 398:c:\users\guita\documents\daisytoolchain-0.3.3\windows\arm-none-eabi\include\c++\10.2.1\cmath ****   inline double
 399:c:\users\guita\documents\daisytoolchain-0.3.3\windows\arm-none-eabi\include\c++\10.2.1\cmath ****   pow(double __x, int __i)
 400:c:\users\guita\documents\daisytoolchain-0.3.3\windows\arm-none-eabi\include\c++\10.2.1\cmath ****   { return __builtin_powi(__x, __i); }
 401:c:\users\guita\documents\daisytoolchain-0.3.3\windows\arm-none-eabi\include\c++\10.2.1\cmath **** 
 402:c:\users\guita\documents\daisytoolchain-0.3.3\windows\arm-none-eabi\include\c++\10.2.1\cmath ****   inline float
 403:c:\users\guita\documents\daisytoolchain-0.3.3\windows\arm-none-eabi\include\c++\10.2.1\cmath ****   pow(float __x, int __n)
 404:c:\users\guita\documents\daisytoolchain-0.3.3\windows\arm-none-eabi\include\c++\10.2.1\cmath ****   { return __builtin_powif(__x, __n); }
 405:c:\users\guita\documents\daisytoolchain-0.3.3\windows\arm-none-eabi\include\c++\10.2.1\cmath **** 
 406:c:\users\guita\documents\daisytoolchain-0.3.3\windows\arm-none-eabi\include\c++\10.2.1\cmath ****   inline long double
 407:c:\users\guita\documents\daisytoolchain-0.3.3\windows\arm-none-eabi\include\c++\10.2.1\cmath ****   pow(long double __x, int __n)
 408:c:\users\guita\documents\daisytoolchain-0.3.3\windows\arm-none-eabi\include\c++\10.2.1\cmath ****   { return __builtin_powil(__x, __n); }
 409:c:\users\guita\documents\daisytoolchain-0.3.3\windows\arm-none-eabi\include\c++\10.2.1\cmath **** #endif
 410:c:\users\guita\documents\daisytoolchain-0.3.3\windows\arm-none-eabi\include\c++\10.2.1\cmath **** #endif
 411:c:\users\guita\documents\daisytoolchain-0.3.3\windows\arm-none-eabi\include\c++\10.2.1\cmath **** 
 412:c:\users\guita\documents\daisytoolchain-0.3.3\windows\arm-none-eabi\include\c++\10.2.1\cmath ****   template<typename _Tp, typename _Up>
 413:c:\users\guita\documents\daisytoolchain-0.3.3\windows\arm-none-eabi\include\c++\10.2.1\cmath ****     inline _GLIBCXX_CONSTEXPR
 414:c:\users\guita\documents\daisytoolchain-0.3.3\windows\arm-none-eabi\include\c++\10.2.1\cmath ****     typename __gnu_cxx::__promote_2<_Tp, _Up>::__type
 415:c:\users\guita\documents\daisytoolchain-0.3.3\windows\arm-none-eabi\include\c++\10.2.1\cmath ****     pow(_Tp __x, _Up __y)
 416:c:\users\guita\documents\daisytoolchain-0.3.3\windows\arm-none-eabi\include\c++\10.2.1\cmath ****     {
 417:c:\users\guita\documents\daisytoolchain-0.3.3\windows\arm-none-eabi\include\c++\10.2.1\cmath ****       typedef typename __gnu_cxx::__promote_2<_Tp, _Up>::__type __type;
 418:c:\users\guita\documents\daisytoolchain-0.3.3\windows\arm-none-eabi\include\c++\10.2.1\cmath ****       return pow(__type(__x), __type(__y));
 419:c:\users\guita\documents\daisytoolchain-0.3.3\windows\arm-none-eabi\include\c++\10.2.1\cmath ****     }
 420:c:\users\guita\documents\daisytoolchain-0.3.3\windows\arm-none-eabi\include\c++\10.2.1\cmath **** 
 421:c:\users\guita\documents\daisytoolchain-0.3.3\windows\arm-none-eabi\include\c++\10.2.1\cmath ****   using ::sin;
 422:c:\users\guita\documents\daisytoolchain-0.3.3\windows\arm-none-eabi\include\c++\10.2.1\cmath **** 
 423:c:\users\guita\documents\daisytoolchain-0.3.3\windows\arm-none-eabi\include\c++\10.2.1\cmath **** #ifndef __CORRECT_ISO_CPP_MATH_H_PROTO
 424:c:\users\guita\documents\daisytoolchain-0.3.3\windows\arm-none-eabi\include\c++\10.2.1\cmath ****   inline _GLIBCXX_CONSTEXPR float
 425:c:\users\guita\documents\daisytoolchain-0.3.3\windows\arm-none-eabi\include\c++\10.2.1\cmath ****   sin(float __x)
 426:c:\users\guita\documents\daisytoolchain-0.3.3\windows\arm-none-eabi\include\c++\10.2.1\cmath ****   { return __builtin_sinf(__x); }
 427:c:\users\guita\documents\daisytoolchain-0.3.3\windows\arm-none-eabi\include\c++\10.2.1\cmath **** 
 428:c:\users\guita\documents\daisytoolchain-0.3.3\windows\arm-none-eabi\include\c++\10.2.1\cmath ****   inline _GLIBCXX_CONSTEXPR long double
 429:c:\users\guita\documents\daisytoolchain-0.3.3\windows\arm-none-eabi\include\c++\10.2.1\cmath ****   sin(long double __x)
 430:c:\users\guita\documents\daisytoolchain-0.3.3\windows\arm-none-eabi\include\c++\10.2.1\cmath ****   { return __builtin_sinl(__x); }
 431:c:\users\guita\documents\daisytoolchain-0.3.3\windows\arm-none-eabi\include\c++\10.2.1\cmath **** #endif
 432:c:\users\guita\documents\daisytoolchain-0.3.3\windows\arm-none-eabi\include\c++\10.2.1\cmath **** 
 433:c:\users\guita\documents\daisytoolchain-0.3.3\windows\arm-none-eabi\include\c++\10.2.1\cmath ****   template<typename _Tp>
 434:c:\users\guita\documents\daisytoolchain-0.3.3\windows\arm-none-eabi\include\c++\10.2.1\cmath ****     inline _GLIBCXX_CONSTEXPR
 435:c:\users\guita\documents\daisytoolchain-0.3.3\windows\arm-none-eabi\include\c++\10.2.1\cmath ****     typename __gnu_cxx::__enable_if<__is_integer<_Tp>::__value, 
 436:c:\users\guita\documents\daisytoolchain-0.3.3\windows\arm-none-eabi\include\c++\10.2.1\cmath ****                                     double>::__type
 437:c:\users\guita\documents\daisytoolchain-0.3.3\windows\arm-none-eabi\include\c++\10.2.1\cmath ****     sin(_Tp __x)
 438:c:\users\guita\documents\daisytoolchain-0.3.3\windows\arm-none-eabi\include\c++\10.2.1\cmath ****     { return __builtin_sin(__x); }
 439:c:\users\guita\documents\daisytoolchain-0.3.3\windows\arm-none-eabi\include\c++\10.2.1\cmath **** 
 440:c:\users\guita\documents\daisytoolchain-0.3.3\windows\arm-none-eabi\include\c++\10.2.1\cmath ****   using ::sinh;
 441:c:\users\guita\documents\daisytoolchain-0.3.3\windows\arm-none-eabi\include\c++\10.2.1\cmath **** 
ARM GAS  C:\Users\guita\AppData\Local\Temp\ccRE0rrt.s 			page 59


 442:c:\users\guita\documents\daisytoolchain-0.3.3\windows\arm-none-eabi\include\c++\10.2.1\cmath **** #ifndef __CORRECT_ISO_CPP_MATH_H_PROTO
 443:c:\users\guita\documents\daisytoolchain-0.3.3\windows\arm-none-eabi\include\c++\10.2.1\cmath ****   inline _GLIBCXX_CONSTEXPR float
 444:c:\users\guita\documents\daisytoolchain-0.3.3\windows\arm-none-eabi\include\c++\10.2.1\cmath ****   sinh(float __x)
 445:c:\users\guita\documents\daisytoolchain-0.3.3\windows\arm-none-eabi\include\c++\10.2.1\cmath ****   { return __builtin_sinhf(__x); }
 446:c:\users\guita\documents\daisytoolchain-0.3.3\windows\arm-none-eabi\include\c++\10.2.1\cmath **** 
 447:c:\users\guita\documents\daisytoolchain-0.3.3\windows\arm-none-eabi\include\c++\10.2.1\cmath ****   inline _GLIBCXX_CONSTEXPR long double
 448:c:\users\guita\documents\daisytoolchain-0.3.3\windows\arm-none-eabi\include\c++\10.2.1\cmath ****   sinh(long double __x)
 449:c:\users\guita\documents\daisytoolchain-0.3.3\windows\arm-none-eabi\include\c++\10.2.1\cmath ****   { return __builtin_sinhl(__x); }
 450:c:\users\guita\documents\daisytoolchain-0.3.3\windows\arm-none-eabi\include\c++\10.2.1\cmath **** #endif
 451:c:\users\guita\documents\daisytoolchain-0.3.3\windows\arm-none-eabi\include\c++\10.2.1\cmath **** 
 452:c:\users\guita\documents\daisytoolchain-0.3.3\windows\arm-none-eabi\include\c++\10.2.1\cmath ****   template<typename _Tp>
 453:c:\users\guita\documents\daisytoolchain-0.3.3\windows\arm-none-eabi\include\c++\10.2.1\cmath ****     inline _GLIBCXX_CONSTEXPR
 454:c:\users\guita\documents\daisytoolchain-0.3.3\windows\arm-none-eabi\include\c++\10.2.1\cmath ****     typename __gnu_cxx::__enable_if<__is_integer<_Tp>::__value, 
 455:c:\users\guita\documents\daisytoolchain-0.3.3\windows\arm-none-eabi\include\c++\10.2.1\cmath ****                                     double>::__type
 456:c:\users\guita\documents\daisytoolchain-0.3.3\windows\arm-none-eabi\include\c++\10.2.1\cmath ****     sinh(_Tp __x)
 457:c:\users\guita\documents\daisytoolchain-0.3.3\windows\arm-none-eabi\include\c++\10.2.1\cmath ****     { return __builtin_sinh(__x); }
 458:c:\users\guita\documents\daisytoolchain-0.3.3\windows\arm-none-eabi\include\c++\10.2.1\cmath **** 
 459:c:\users\guita\documents\daisytoolchain-0.3.3\windows\arm-none-eabi\include\c++\10.2.1\cmath ****   using ::sqrt;
 460:c:\users\guita\documents\daisytoolchain-0.3.3\windows\arm-none-eabi\include\c++\10.2.1\cmath **** 
 461:c:\users\guita\documents\daisytoolchain-0.3.3\windows\arm-none-eabi\include\c++\10.2.1\cmath **** #ifndef __CORRECT_ISO_CPP_MATH_H_PROTO
 462:c:\users\guita\documents\daisytoolchain-0.3.3\windows\arm-none-eabi\include\c++\10.2.1\cmath ****   inline _GLIBCXX_CONSTEXPR float
 463:c:\users\guita\documents\daisytoolchain-0.3.3\windows\arm-none-eabi\include\c++\10.2.1\cmath ****   sqrt(float __x)
 464:c:\users\guita\documents\daisytoolchain-0.3.3\windows\arm-none-eabi\include\c++\10.2.1\cmath ****   { return __builtin_sqrtf(__x); }
 465:c:\users\guita\documents\daisytoolchain-0.3.3\windows\arm-none-eabi\include\c++\10.2.1\cmath **** 
 466:c:\users\guita\documents\daisytoolchain-0.3.3\windows\arm-none-eabi\include\c++\10.2.1\cmath ****   inline _GLIBCXX_CONSTEXPR long double
 467:c:\users\guita\documents\daisytoolchain-0.3.3\windows\arm-none-eabi\include\c++\10.2.1\cmath ****   sqrt(long double __x)
 468:c:\users\guita\documents\daisytoolchain-0.3.3\windows\arm-none-eabi\include\c++\10.2.1\cmath ****   { return __builtin_sqrtl(__x); }
 469:c:\users\guita\documents\daisytoolchain-0.3.3\windows\arm-none-eabi\include\c++\10.2.1\cmath **** #endif
 470:c:\users\guita\documents\daisytoolchain-0.3.3\windows\arm-none-eabi\include\c++\10.2.1\cmath **** 
 471:c:\users\guita\documents\daisytoolchain-0.3.3\windows\arm-none-eabi\include\c++\10.2.1\cmath ****   template<typename _Tp>
 472:c:\users\guita\documents\daisytoolchain-0.3.3\windows\arm-none-eabi\include\c++\10.2.1\cmath ****     inline _GLIBCXX_CONSTEXPR
 473:c:\users\guita\documents\daisytoolchain-0.3.3\windows\arm-none-eabi\include\c++\10.2.1\cmath ****     typename __gnu_cxx::__enable_if<__is_integer<_Tp>::__value, 
 474:c:\users\guita\documents\daisytoolchain-0.3.3\windows\arm-none-eabi\include\c++\10.2.1\cmath ****                                     double>::__type
 475:c:\users\guita\documents\daisytoolchain-0.3.3\windows\arm-none-eabi\include\c++\10.2.1\cmath ****     sqrt(_Tp __x)
 476:c:\users\guita\documents\daisytoolchain-0.3.3\windows\arm-none-eabi\include\c++\10.2.1\cmath ****     { return __builtin_sqrt(__x); }
 477:c:\users\guita\documents\daisytoolchain-0.3.3\windows\arm-none-eabi\include\c++\10.2.1\cmath **** 
 478:c:\users\guita\documents\daisytoolchain-0.3.3\windows\arm-none-eabi\include\c++\10.2.1\cmath ****   using ::tan;
 479:c:\users\guita\documents\daisytoolchain-0.3.3\windows\arm-none-eabi\include\c++\10.2.1\cmath **** 
 480:c:\users\guita\documents\daisytoolchain-0.3.3\windows\arm-none-eabi\include\c++\10.2.1\cmath **** #ifndef __CORRECT_ISO_CPP_MATH_H_PROTO
 481:c:\users\guita\documents\daisytoolchain-0.3.3\windows\arm-none-eabi\include\c++\10.2.1\cmath ****   inline _GLIBCXX_CONSTEXPR float
 482:c:\users\guita\documents\daisytoolchain-0.3.3\windows\arm-none-eabi\include\c++\10.2.1\cmath ****   tan(float __x)
 483:c:\users\guita\documents\daisytoolchain-0.3.3\windows\arm-none-eabi\include\c++\10.2.1\cmath ****   { return __builtin_tanf(__x); }
 484:c:\users\guita\documents\daisytoolchain-0.3.3\windows\arm-none-eabi\include\c++\10.2.1\cmath **** 
 485:c:\users\guita\documents\daisytoolchain-0.3.3\windows\arm-none-eabi\include\c++\10.2.1\cmath ****   inline _GLIBCXX_CONSTEXPR long double
 486:c:\users\guita\documents\daisytoolchain-0.3.3\windows\arm-none-eabi\include\c++\10.2.1\cmath ****   tan(long double __x)
 487:c:\users\guita\documents\daisytoolchain-0.3.3\windows\arm-none-eabi\include\c++\10.2.1\cmath ****   { return __builtin_tanl(__x); }
 488:c:\users\guita\documents\daisytoolchain-0.3.3\windows\arm-none-eabi\include\c++\10.2.1\cmath **** #endif
 489:c:\users\guita\documents\daisytoolchain-0.3.3\windows\arm-none-eabi\include\c++\10.2.1\cmath **** 
 490:c:\users\guita\documents\daisytoolchain-0.3.3\windows\arm-none-eabi\include\c++\10.2.1\cmath ****   template<typename _Tp>
 491:c:\users\guita\documents\daisytoolchain-0.3.3\windows\arm-none-eabi\include\c++\10.2.1\cmath ****     inline _GLIBCXX_CONSTEXPR
 492:c:\users\guita\documents\daisytoolchain-0.3.3\windows\arm-none-eabi\include\c++\10.2.1\cmath ****     typename __gnu_cxx::__enable_if<__is_integer<_Tp>::__value, 
 493:c:\users\guita\documents\daisytoolchain-0.3.3\windows\arm-none-eabi\include\c++\10.2.1\cmath ****                                     double>::__type
 494:c:\users\guita\documents\daisytoolchain-0.3.3\windows\arm-none-eabi\include\c++\10.2.1\cmath ****     tan(_Tp __x)
 495:c:\users\guita\documents\daisytoolchain-0.3.3\windows\arm-none-eabi\include\c++\10.2.1\cmath ****     { return __builtin_tan(__x); }
 496:c:\users\guita\documents\daisytoolchain-0.3.3\windows\arm-none-eabi\include\c++\10.2.1\cmath **** 
 497:c:\users\guita\documents\daisytoolchain-0.3.3\windows\arm-none-eabi\include\c++\10.2.1\cmath ****   using ::tanh;
 498:c:\users\guita\documents\daisytoolchain-0.3.3\windows\arm-none-eabi\include\c++\10.2.1\cmath **** 
ARM GAS  C:\Users\guita\AppData\Local\Temp\ccRE0rrt.s 			page 60


 499:c:\users\guita\documents\daisytoolchain-0.3.3\windows\arm-none-eabi\include\c++\10.2.1\cmath **** #ifndef __CORRECT_ISO_CPP_MATH_H_PROTO
 500:c:\users\guita\documents\daisytoolchain-0.3.3\windows\arm-none-eabi\include\c++\10.2.1\cmath ****   inline _GLIBCXX_CONSTEXPR float
 501:c:\users\guita\documents\daisytoolchain-0.3.3\windows\arm-none-eabi\include\c++\10.2.1\cmath ****   tanh(float __x)
 502:c:\users\guita\documents\daisytoolchain-0.3.3\windows\arm-none-eabi\include\c++\10.2.1\cmath ****   { return __builtin_tanhf(__x); }
 1561              		.loc 12 502 5 is_stmt 1 view .LVU369
 1562              	.LBB630:
 1563              	.LBB626:
 1564              	.LBB554:
 1565              	.LBB548:
 1566              		.loc 11 206 3 view .LVU370
 204:FXObjects/BassPedalFX.h **** 		double den = tanh(k);
 1567              		.loc 11 204 10 is_stmt 0 view .LVU371
 1568 0026 9FED327B 		vldr.64	d7, .L65+24
 1569              	.LBE548:
 1570              	.LBE554:
 1571              	.LBB555:
 1572              	.LBB556:
 1573              	.LBB557:
 1574              	.LBB558:
   5:FXObjects/LBFX.cpp **** 		- coeffArray[b2] * stateArray[x_z2];
 1575              		.loc 10 5 51 view .LVU372
 1576 002a 94ED121B 		vldr.64	d1, [r4, #72]
   5:FXObjects/LBFX.cpp **** 		- coeffArray[b2] * stateArray[x_z2];
 1577              		.loc 10 5 17 view .LVU373
 1578 002e 94ED0A3B 		vldr.64	d3, [r4, #40]
 1579              	.LBE558:
 1580              	.LBE557:
 1581              	.LBE556:
 1582              	.LBE555:
 1583              	.LBB581:
 1584              	.LBB549:
 204:FXObjects/BassPedalFX.h **** 		double den = tanh(k);
 1585              		.loc 11 204 10 view .LVU374
 1586 0032 20EE070B 		vmul.f64	d0, d0, d7
 1587              	.LVL78:
 204:FXObjects/BassPedalFX.h **** 		double den = tanh(k);
 1588              		.loc 11 204 10 view .LVU375
 1589              	.LBE549:
 1590              	.LBE581:
 1591              	.LBB582:
 1592              	.LBB573:
 1593              	.LBB566:
 1594              	.LBB559:
   6:FXObjects/LBFX.cpp **** 	
 1595              		.loc 10 6 37 view .LVU376
 1596 0036 94ED14AB 		vldr.64	d10, [r4, #80]
   5:FXObjects/LBFX.cpp **** 		- coeffArray[b2] * stateArray[x_z2];
 1597              		.loc 10 5 9 view .LVU377
 1598 003a 94ED0C4B 		vldr.64	d4, [r4, #48]
 1599              	.LBE559:
 1600              	.LBE566:
 1601              	.LBE573:
 1602              	.LBE582:
 1603              	.LBB583:
 1604              	.LBB550:
 1605              		.loc 11 206 16 view .LVU378
 1606 003e 80EE098B 		vdiv.f64	d8, d0, d9
ARM GAS  C:\Users\guita\AppData\Local\Temp\ccRE0rrt.s 			page 61


 1607              	.LVL79:
 1608              		.loc 11 206 16 view .LVU379
 1609              	.LBE550:
 1610              	.LBE583:
 157:FXObjects/BassPedalFX.h **** 
 1611              		.loc 11 157 3 is_stmt 1 view .LVU380
 1612              	.LBB584:
 1613              	.LBI555:
  21:FXObjects/LBFX.cpp **** 
  22:FXObjects/LBFX.cpp **** double LB_LPF::processAudioSample(double xn) {
  23:FXObjects/LBFX.cpp **** 	return biquad.processAudioSample(xn);
  24:FXObjects/LBFX.cpp **** }
  25:FXObjects/LBFX.cpp **** 
  26:FXObjects/LBFX.cpp **** bool LB_LPF::calculateFilterCoeffs() {
  27:FXObjects/LBFX.cpp **** 	//clear coeff array
  28:FXObjects/LBFX.cpp **** 	memset(&coeffArray[0], 0, sizeof(double) * numCoeffs);
  29:FXObjects/LBFX.cpp **** 
  30:FXObjects/LBFX.cpp **** 	// --- set default pass-through
  31:FXObjects/LBFX.cpp **** 	coeffArray[a0] = 1.0;
  32:FXObjects/LBFX.cpp **** 	coeffArray[c0] = 1.0;
  33:FXObjects/LBFX.cpp **** 	coeffArray[d0] = 0.0;
  34:FXObjects/LBFX.cpp **** 
  35:FXObjects/LBFX.cpp **** 
  36:FXObjects/LBFX.cpp **** 	//for 2nd order low pass filter
  37:FXObjects/LBFX.cpp **** 	double thetaC = 2 * kPi * parameters.fc / sampleRate;
  38:FXObjects/LBFX.cpp **** 	double d = 1.0 / parameters.Q;
  39:FXObjects/LBFX.cpp **** 	double beta = 0.5 * (1 - (d / 2) * sin(thetaC)) / (1 + (d / 2) * sin(thetaC));
  40:FXObjects/LBFX.cpp **** 	double gamma = (0.5 + beta) * cos(thetaC);
  41:FXObjects/LBFX.cpp **** 	
  42:FXObjects/LBFX.cpp **** 	coeffArray[a0] = (0.5 + beta - gamma) / 2.0;
  43:FXObjects/LBFX.cpp **** 	coeffArray[a1] = 0.5 + beta - gamma;
  44:FXObjects/LBFX.cpp **** 	coeffArray[a2] = coeffArray[a0];
  45:FXObjects/LBFX.cpp **** 	coeffArray[b1] = -2 * gamma;
  46:FXObjects/LBFX.cpp **** 	coeffArray[b2] = 2 * beta;
  47:FXObjects/LBFX.cpp **** 
  48:FXObjects/LBFX.cpp **** 	biquad.setCoefficients(coeffArray);
  49:FXObjects/LBFX.cpp **** 
  50:FXObjects/LBFX.cpp **** 	return true;
  51:FXObjects/LBFX.cpp **** 
  52:FXObjects/LBFX.cpp **** }
  53:FXObjects/LBFX.cpp **** 
  54:FXObjects/LBFX.cpp **** double LB_PEQ::processAudioSample(double xn) {
 1614              		.loc 10 54 8 view .LVU381
 1615              	.LBB574:
  55:FXObjects/LBFX.cpp **** 	return coeffArray[d0] * xn + coeffArray[c0] * biquad.processAudioSample(xn);
 1616              		.loc 10 55 2 view .LVU382
 1617              	.LBB567:
 1618              	.LBI557:
   3:FXObjects/LBFX.cpp **** 	// Canonical form difference eqn
 1619              		.loc 10 3 8 view .LVU383
 1620              	.LBB560:
   5:FXObjects/LBFX.cpp **** 		- coeffArray[b2] * stateArray[x_z2];
 1621              		.loc 10 5 2 view .LVU384
   9:FXObjects/LBFX.cpp **** 		+ coeffArray[a2] * stateArray[x_z2];
 1622              		.loc 10 9 20 is_stmt 0 view .LVU385
 1623 0042 94ED066B 		vldr.64	d6, [r4, #24]
   9:FXObjects/LBFX.cpp **** 		+ coeffArray[a2] * stateArray[x_z2];
ARM GAS  C:\Users\guita\AppData\Local\Temp\ccRE0rrt.s 			page 62


 1624              		.loc 10 9 3 view .LVU386
 1625 0046 94ED045B 		vldr.64	d5, [r4, #16]
 1626              	.LBE560:
 1627              	.LBE567:
 1628              		.loc 10 55 44 view .LVU387
 1629 004a 94ED247B 		vldr.64	d7, [r4, #144]
 1630              	.LBB568:
 1631              	.LBB561:
   9:FXObjects/LBFX.cpp **** 		+ coeffArray[a2] * stateArray[x_z2];
 1632              		.loc 10 9 20 view .LVU388
 1633 004e 21EE066B 		vmul.f64	d6, d1, d6
 1634              	.LBE561:
 1635              	.LBE568:
 1636              		.loc 10 55 22 view .LVU389
 1637 0052 94ED262B 		vldr.64	d2, [r4, #152]
 1638              	.LBE574:
 1639              	.LBE584:
 160:FXObjects/BassPedalFX.h **** 
 1640              		.loc 11 160 6 view .LVU390
 1641 0056 9FED289B 		vldr.64	d9, .L65+32
 1642              	.LBB585:
 1643              	.LBB575:
 1644              	.LBB569:
 1645              	.LBB562:
  16:FXObjects/LBFX.cpp **** 	stateArray[x_z1] = wn;
 1646              		.loc 10 16 19 view .LVU391
 1647 005a 84ED141B 		vstr.64	d1, [r4, #80]
   5:FXObjects/LBFX.cpp **** 		- coeffArray[b2] * stateArray[x_z2];
 1648              		.loc 10 5 17 view .LVU392
 1649 005e B0EE480B 		vmov.f64	d0, d8
 1650 0062 A3EE410B 		vfms.f64	d0, d3, d1
 1651              	.LBE562:
 1652              	.LBE569:
 1653              	.LBE575:
 1654              	.LBE585:
 1655              	.LBB586:
 1656              	.LBB587:
 1657              	.LBB588:
 1658              	.LBB589:
   6:FXObjects/LBFX.cpp **** 	
 1659              		.loc 10 6 37 view .LVU393
 1660 0066 94ED421B 		vldr.64	d1, [r4, #264]
 1661              	.LBE589:
 1662              	.LBE588:
 1663              		.loc 10 55 22 view .LVU394
 1664 006a 94ED543B 		vldr.64	d3, [r4, #336]
 1665              	.LBE587:
 1666              	.LBE586:
 1667              	.LBB611:
 1668              	.LBB576:
 1669              	.LBB570:
 1670              	.LBB563:
   5:FXObjects/LBFX.cpp **** 		- coeffArray[b2] * stateArray[x_z2];
 1671              		.loc 10 5 9 view .LVU395
 1672 006e A4EE4A0B 		vfms.f64	d0, d4, d10
 1673              	.LVL80:
   8:FXObjects/LBFX.cpp **** 		+ coeffArray[a1] * stateArray[x_z1]
ARM GAS  C:\Users\guita\AppData\Local\Temp\ccRE0rrt.s 			page 63


 1674              		.loc 10 8 2 is_stmt 1 view .LVU396
 1675              	.LBE563:
 1676              	.LBE570:
 1677              	.LBE576:
 1678              	.LBE611:
 1679              	.LBB612:
 1680              	.LBB604:
 1681              	.LBB597:
 1682              	.LBB590:
   5:FXObjects/LBFX.cpp **** 		- coeffArray[b2] * stateArray[x_z2];
 1683              		.loc 10 5 17 is_stmt 0 view .LVU397
 1684 0072 94ED384B 		vldr.64	d4, [r4, #224]
 1685              	.LBE590:
 1686              	.LBE597:
 1687              	.LBE604:
 1688              	.LBE612:
 1689              	.LBB613:
 1690              	.LBB577:
 1691              	.LBB571:
 1692              	.LBB564:
   9:FXObjects/LBFX.cpp **** 		+ coeffArray[a2] * stateArray[x_z2];
 1693              		.loc 10 9 3 view .LVU398
 1694 0076 A0EE056B 		vfma.f64	d6, d0, d5
   8:FXObjects/LBFX.cpp **** 		+ coeffArray[a1] * stateArray[x_z1]
 1695              		.loc 10 8 9 view .LVU399
 1696 007a 94ED085B 		vldr.64	d5, [r4, #32]
  17:FXObjects/LBFX.cpp **** 
 1697              		.loc 10 17 19 view .LVU400
 1698 007e 84ED120B 		vstr.64	d0, [r4, #72]
 1699              	.LBE564:
 1700              	.LBE571:
 1701              	.LBE577:
 1702              	.LBE613:
 1703              	.LBB614:
 1704              	.LBB605:
 1705              	.LBB598:
 1706              	.LBB591:
   5:FXObjects/LBFX.cpp **** 		- coeffArray[b2] * stateArray[x_z2];
 1707              		.loc 10 5 51 view .LVU401
 1708 0082 94ED400B 		vldr.64	d0, [r4, #256]
 1709              	.LVL81:
   5:FXObjects/LBFX.cpp **** 		- coeffArray[b2] * stateArray[x_z2];
 1710              		.loc 10 5 51 view .LVU402
 1711              	.LBE591:
 1712              	.LBE598:
 1713              	.LBE605:
 1714              	.LBE614:
 1715              	.LBB615:
 1716              	.LBB578:
 1717              	.LBB572:
 1718              	.LBB565:
   8:FXObjects/LBFX.cpp **** 		+ coeffArray[a1] * stateArray[x_z1]
 1719              		.loc 10 8 9 view .LVU403
 1720 0086 AAEE056B 		vfma.f64	d6, d10, d5
 1721              	.LVL82:
  16:FXObjects/LBFX.cpp **** 	stateArray[x_z1] = wn;
 1722              		.loc 10 16 2 is_stmt 1 view .LVU404
ARM GAS  C:\Users\guita\AppData\Local\Temp\ccRE0rrt.s 			page 64


  17:FXObjects/LBFX.cpp **** 
 1723              		.loc 10 17 2 view .LVU405
  19:FXObjects/LBFX.cpp **** }
 1724              		.loc 10 19 2 view .LVU406
  19:FXObjects/LBFX.cpp **** }
 1725              		.loc 10 19 2 is_stmt 0 view .LVU407
 1726              	.LBE565:
 1727              	.LBE572:
 1728              	.LBE578:
 1729              	.LBE615:
 1730              	.LBB616:
 1731              	.LBB606:
 1732              	.LBB599:
 1733              	.LBB592:
  16:FXObjects/LBFX.cpp **** 	stateArray[x_z1] = wn;
 1734              		.loc 10 16 19 view .LVU408
 1735 008a 84ED420B 		vstr.64	d0, [r4, #264]
 1736              	.LBE592:
 1737              	.LBE599:
 1738              		.loc 10 55 44 view .LVU409
 1739 008e 94ED525B 		vldr.64	d5, [r4, #328]
 1740              	.LBE606:
 1741              	.LBE616:
 1742              	.LBB617:
 1743              	.LBB579:
 1744              		.loc 10 55 46 view .LVU410
 1745 0092 27EE067B 		vmul.f64	d7, d7, d6
 1746              	.LBE579:
 1747              	.LBE617:
 1748              	.LBB618:
 1749              	.LBB607:
 1750              	.LBB600:
 1751              	.LBB593:
   9:FXObjects/LBFX.cpp **** 		+ coeffArray[a2] * stateArray[x_z2];
 1752              		.loc 10 9 3 view .LVU411
 1753 0096 94ED326B 		vldr.64	d6, [r4, #200]
 1754              	.LBE593:
 1755              	.LBE600:
 1756              	.LBE607:
 1757              	.LBE618:
 1758              	.LBB619:
 1759              	.LBB580:
 1760              		.loc 10 55 76 view .LVU412
 1761 009a A8EE027B 		vfma.f64	d7, d8, d2
 1762              	.LVL83:
 1763              		.loc 10 55 76 view .LVU413
 1764              	.LBE580:
 1765              	.LBE619:
 160:FXObjects/BassPedalFX.h **** 
 1766              		.loc 11 160 3 is_stmt 1 view .LVU414
 1767              	.LBB620:
 1768              	.LBB608:
 1769              	.LBB601:
 1770              	.LBB594:
   5:FXObjects/LBFX.cpp **** 		- coeffArray[b2] * stateArray[x_z2];
 1771              		.loc 10 5 9 is_stmt 0 view .LVU415
 1772 009e 94ED3A2B 		vldr.64	d2, [r4, #232]
ARM GAS  C:\Users\guita\AppData\Local\Temp\ccRE0rrt.s 			page 65


 1773              	.LBE594:
 1774              	.LBE601:
 1775              	.LBE608:
 1776              	.LBE620:
 160:FXObjects/BassPedalFX.h **** 
 1777              		.loc 11 160 6 view .LVU416
 1778 00a2 27EE097B 		vmul.f64	d7, d7, d9
 1779              	.LVL84:
 163:FXObjects/BassPedalFX.h **** 
 1780              		.loc 11 163 3 is_stmt 1 view .LVU417
 1781              	.LBB621:
 1782              	.LBI586:
  54:FXObjects/LBFX.cpp **** 	return coeffArray[d0] * xn + coeffArray[c0] * biquad.processAudioSample(xn);
 1783              		.loc 10 54 8 view .LVU418
 1784              	.LBB609:
 1785              		.loc 10 55 2 view .LVU419
 1786              	.LBB602:
 1787              	.LBI588:
   3:FXObjects/LBFX.cpp **** 	// Canonical form difference eqn
 1788              		.loc 10 3 8 view .LVU420
 1789              	.LBB595:
   5:FXObjects/LBFX.cpp **** 		- coeffArray[b2] * stateArray[x_z2];
 1790              		.loc 10 5 2 view .LVU421
   5:FXObjects/LBFX.cpp **** 		- coeffArray[b2] * stateArray[x_z2];
 1791              		.loc 10 5 17 is_stmt 0 view .LVU422
 1792 00a6 B0EE478B 		vmov.f64	d8, d7
 1793 00aa A4EE408B 		vfms.f64	d8, d4, d0
   9:FXObjects/LBFX.cpp **** 		+ coeffArray[a2] * stateArray[x_z2];
 1794              		.loc 10 9 20 view .LVU423
 1795 00ae 94ED344B 		vldr.64	d4, [r4, #208]
 1796 00b2 20EE040B 		vmul.f64	d0, d0, d4
   5:FXObjects/LBFX.cpp **** 		- coeffArray[b2] * stateArray[x_z2];
 1797              		.loc 10 5 9 view .LVU424
 1798 00b6 A2EE418B 		vfms.f64	d8, d2, d1
 1799              	.LVL85:
   8:FXObjects/LBFX.cpp **** 		+ coeffArray[a1] * stateArray[x_z1]
 1800              		.loc 10 8 2 is_stmt 1 view .LVU425
   9:FXObjects/LBFX.cpp **** 		+ coeffArray[a2] * stateArray[x_z2];
 1801              		.loc 10 9 3 is_stmt 0 view .LVU426
 1802 00ba A8EE060B 		vfma.f64	d0, d8, d6
   8:FXObjects/LBFX.cpp **** 		+ coeffArray[a1] * stateArray[x_z1]
 1803              		.loc 10 8 9 view .LVU427
 1804 00be 94ED366B 		vldr.64	d6, [r4, #216]
  17:FXObjects/LBFX.cpp **** 
 1805              		.loc 10 17 19 view .LVU428
 1806 00c2 84ED408B 		vstr.64	d8, [r4, #256]
 1807              	.LBE595:
 1808              	.LBE602:
 1809              	.LBE609:
 1810              	.LBE621:
 1811              	.LBE626:
 1812              	.LBE630:
 168:FXObjects/BassPedalFX.h **** 
 1813              		.loc 11 168 2 view .LVU429
 1814 00c6 BDEC068B 		vldm	sp!, {d8-d10}
 1815              		.cfi_restore 84
 1816              		.cfi_restore 85
ARM GAS  C:\Users\guita\AppData\Local\Temp\ccRE0rrt.s 			page 66


 1817              		.cfi_restore 82
 1818              		.cfi_restore 83
 1819              		.cfi_restore 80
 1820              		.cfi_restore 81
 1821              		.cfi_def_cfa_offset 8
 1822              	.LVL86:
 1823              	.LBB631:
 1824              	.LBB627:
 1825              	.LBB622:
 1826              	.LBB610:
 1827              	.LBB603:
 1828              	.LBB596:
   8:FXObjects/LBFX.cpp **** 		+ coeffArray[a1] * stateArray[x_z1]
 1829              		.loc 10 8 9 view .LVU430
 1830 00ca A1EE060B 		vfma.f64	d0, d1, d6
 1831              	.LVL87:
  16:FXObjects/LBFX.cpp **** 	stateArray[x_z1] = wn;
 1832              		.loc 10 16 2 is_stmt 1 view .LVU431
  17:FXObjects/LBFX.cpp **** 
 1833              		.loc 10 17 2 view .LVU432
  19:FXObjects/LBFX.cpp **** }
 1834              		.loc 10 19 2 view .LVU433
  19:FXObjects/LBFX.cpp **** }
 1835              		.loc 10 19 2 is_stmt 0 view .LVU434
 1836              	.LBE596:
 1837              	.LBE603:
 1838              		.loc 10 55 46 view .LVU435
 1839 00ce 25EE000B 		vmul.f64	d0, d5, d0
 1840              		.loc 10 55 76 view .LVU436
 1841 00d2 A7EE030B 		vfma.f64	d0, d7, d3
 1842              	.LVL88:
 1843              		.loc 10 55 76 view .LVU437
 1844              	.LBE610:
 1845              	.LBE622:
 167:FXObjects/BassPedalFX.h **** 	}
 1846              		.loc 11 167 3 is_stmt 1 view .LVU438
 167:FXObjects/BassPedalFX.h **** 	}
 1847              		.loc 11 167 3 is_stmt 0 view .LVU439
 1848              	.LBE627:
 1849              	.LBE631:
 168:FXObjects/BassPedalFX.h **** 
 1850              		.loc 11 168 2 view .LVU440
 1851 00d6 10BD     		pop	{r4, pc}
 1852              	.LVL89:
 1853              	.L66:
 168:FXObjects/BassPedalFX.h **** 
 1854              		.loc 11 168 2 view .LVU441
 1855              		.align	3
 1856              	.L65:
 1857 00d8 000000A0 		.word	-1610612736
 1858 00dc 99991540 		.word	1075157401
 1859 00e0 48E17A14 		.word	343597384
 1860 00e4 AE47F53F 		.word	1073039278
 1861 00e8 00000080 		.word	-2147483648
 1862 00ec AAFFEF3F 		.word	1072693162
 1863 00f0 66666666 		.word	1717986918
 1864 00f4 6666D63F 		.word	1071015526
ARM GAS  C:\Users\guita\AppData\Local\Temp\ccRE0rrt.s 			page 67


 1865 00f8 33333333 		.word	858993459
 1866 00fc 3333D33F 		.word	1070805811
 1867              		.cfi_endproc
 1868              	.LFE4546:
 1870              		.section	.text._ZN13LB_Compressor18processAudioSampleEd,"axG",%progbits,_ZN13LB_Compressor18proces
 1871              		.align	1
 1872              		.p2align 2,,3
 1873              		.weak	_ZN13LB_Compressor18processAudioSampleEd
 1874              		.syntax unified
 1875              		.thumb
 1876              		.thumb_func
 1877              		.fpu fpv5-d16
 1879              	_ZN13LB_Compressor18processAudioSampleEd:
 1880              	.LVL90:
 1881              	.LFB2260:
 409:FXObjects/LBFX.h **** 		double detect_dB = detector.processAudioSample(xn); // no sidechain here yet
 1882              		.loc 9 409 17 is_stmt 1 view -0
 1883              		.cfi_startproc
 1884              		@ args = 0, pretend = 0, frame = 0
 1885              		@ frame_needed = 0, uses_anonymous_args = 0
 410:FXObjects/LBFX.h **** 
 1886              		.loc 9 410 3 view .LVU443
 1887              	.LBB638:
 1888              	.LBB639:
 327:FXObjects/LBFX.h **** 
 1889              		.loc 9 327 9 is_stmt 0 view .LVU444
 1890 0000 20EE007B 		vmul.f64	d7, d0, d0
 331:FXObjects/LBFX.h **** 			currEnvelope = attackTime * (lastEnvelope - input) + input;
 1891              		.loc 9 331 15 view .LVU445
 1892 0004 90ED1C6B 		vldr.64	d6, [r0, #112]
 1893              	.LBE639:
 1894              	.LBE638:
 409:FXObjects/LBFX.h **** 		double detect_dB = detector.processAudioSample(xn); // no sidechain here yet
 1895              		.loc 9 409 17 view .LVU446
 1896 0008 10B5     		push	{r4, lr}
 1897              		.cfi_def_cfa_offset 8
 1898              		.cfi_offset 4, -8
 1899              		.cfi_offset 14, -4
 1900              	.LBB651:
 1901              	.LBB646:
 331:FXObjects/LBFX.h **** 			currEnvelope = attackTime * (lastEnvelope - input) + input;
 1902              		.loc 9 331 3 view .LVU447
 1903 000a B4EEC67B 		vcmpe.f64	d7, d6
 1904              	.LBE646:
 1905              	.LBE651:
 409:FXObjects/LBFX.h **** 		double detect_dB = detector.processAudioSample(xn); // no sidechain here yet
 1906              		.loc 9 409 17 view .LVU448
 1907 000e 0446     		mov	r4, r0
 1908              	.LVL91:
 1909              	.LBB652:
 1910              	.LBB647:
 332:FXObjects/LBFX.h **** 		else
 1911              		.loc 9 332 46 view .LVU449
 1912 0010 36EE476B 		vsub.f64	d6, d6, d7
 331:FXObjects/LBFX.h **** 			currEnvelope = attackTime * (lastEnvelope - input) + input;
 1913              		.loc 9 331 3 view .LVU450
 1914 0014 F1EE10FA 		vmrs	APSR_nzcv, FPSCR
ARM GAS  C:\Users\guita\AppData\Local\Temp\ccRE0rrt.s 			page 68


 1915              	.LBE647:
 1916              	.LBE652:
 409:FXObjects/LBFX.h **** 		double detect_dB = detector.processAudioSample(xn); // no sidechain here yet
 1917              		.loc 9 409 17 view .LVU451
 1918 0018 2DED068B 		vpush.64	{d8, d9, d10}
 1919              		.cfi_def_cfa_offset 32
 1920              		.cfi_offset 80, -32
 1921              		.cfi_offset 81, -28
 1922              		.cfi_offset 82, -24
 1923              		.cfi_offset 83, -20
 1924              		.cfi_offset 84, -16
 1925              		.cfi_offset 85, -12
 409:FXObjects/LBFX.h **** 		double detect_dB = detector.processAudioSample(xn); // no sidechain here yet
 1926              		.loc 9 409 17 view .LVU452
 1927 001c B0EE408B 		vmov.f64	d8, d0
 1928              	.LVL92:
 1929              	.LBB653:
 1930              	.LBI638:
 322:FXObjects/LBFX.h **** 		//full wave rectification
 1931              		.loc 9 322 17 is_stmt 1 view .LVU453
 1932              	.LBB648:
 324:FXObjects/LBFX.h **** 
 1933              		.loc 9 324 3 view .LVU454
 327:FXObjects/LBFX.h **** 
 1934              		.loc 9 327 3 view .LVU455
 329:FXObjects/LBFX.h **** 
 1935              		.loc 9 329 3 view .LVU456
 331:FXObjects/LBFX.h **** 			currEnvelope = attackTime * (lastEnvelope - input) + input;
 1936              		.loc 9 331 3 view .LVU457
 1937 0020 58DD     		ble	.L85
 332:FXObjects/LBFX.h **** 		else
 1938              		.loc 9 332 4 view .LVU458
 332:FXObjects/LBFX.h **** 		else
 1939              		.loc 9 332 55 is_stmt 0 view .LVU459
 1940 0022 90ED185B 		vldr.64	d5, [r0, #96]
 1941 0026 A5EE067B 		vfma.f64	d7, d5, d6
 1942              	.LVL93:
 1943              	.L70:
 336:FXObjects/LBFX.h **** 
 1944              		.loc 9 336 3 is_stmt 1 view .LVU460
 1945              	.LBB640:
 1946              	.LBI640:
  26:FXObjects/LBFX.h **** {
 1947              		.loc 9 26 13 view .LVU461
 1948              	.LBB641:
  28:FXObjects/LBFX.h **** 	if (value > 0.0 && value < kSmallestPositiveFloatValue)
 1949              		.loc 9 28 2 view .LVU462
  29:FXObjects/LBFX.h **** 	{
 1950              		.loc 9 29 2 view .LVU463
 1951 002a B5EEC07B 		vcmpe.f64	d7, #0
 1952 002e F1EE10FA 		vmrs	APSR_nzcv, FPSCR
 1953 0032 09DD     		ble	.L71
  29:FXObjects/LBFX.h **** 	{
 1954              		.loc 9 29 18 is_stmt 0 view .LVU464
 1955 0034 9FED306B 		vldr.64	d6, .L88
 1956 0038 B4EEC67B 		vcmpe.f64	d7, d6
 1957 003c F1EE10FA 		vmrs	APSR_nzcv, FPSCR
ARM GAS  C:\Users\guita\AppData\Local\Temp\ccRE0rrt.s 			page 69


 1958 0040 02D5     		bpl	.L71
 1959 0042 9FED2F6B 		vldr.64	d6, .L88+8
 1960 0046 08E0     		b	.L73
 1961              	.L71:
  34:FXObjects/LBFX.h **** 	{
 1962              		.loc 9 34 7 is_stmt 1 view .LVU465
 1963 0048 9FED2D6B 		vldr.64	d6, .L88+8
 1964 004c B4EEC67B 		vcmpe.f64	d7, d6
 1965 0050 F1EE10FA 		vmrs	APSR_nzcv, FPSCR
 1966 0054 46D4     		bmi	.L74
 1967              	.L87:
 1968              	.LBE641:
 1969              	.LBE640:
 340:FXObjects/LBFX.h **** 
 1970              		.loc 9 340 22 is_stmt 0 view .LVU466
 1971 0056 87FE066B 		vmaxnm.f64	d6, d7, d6
 1972              	.L73:
 1973              	.LVL94:
 1974              	.LBB644:
 1975              	.LBB642:
  39:FXObjects/LBFX.h **** }
 1976              		.loc 9 39 2 is_stmt 1 view .LVU467
  39:FXObjects/LBFX.h **** }
 1977              		.loc 9 39 2 is_stmt 0 view .LVU468
 1978              	.LBE642:
 1979              	.LBE644:
 340:FXObjects/LBFX.h **** 
 1980              		.loc 9 340 3 is_stmt 1 view .LVU469
 342:FXObjects/LBFX.h **** 
 1981              		.loc 9 342 3 view .LVU470
 345:FXObjects/LBFX.h **** 
 1982              		.loc 9 345 21 is_stmt 0 view .LVU471
 1983 005a B6EE001B 		vmov.f64	d1, #5.0e-1
 1984 005e B0EE460B 		vmov.f64	d0, d6
 1985              	.LVL95:
 342:FXObjects/LBFX.h **** 
 1986              		.loc 9 342 16 view .LVU472
 1987 0062 84ED1C6B 		vstr.64	d6, [r4, #112]
 345:FXObjects/LBFX.h **** 
 1988              		.loc 9 345 3 is_stmt 1 view .LVU473
 345:FXObjects/LBFX.h **** 
 1989              		.loc 9 345 21 is_stmt 0 view .LVU474
 1990 0066 FFF7FEFF 		bl	pow
 1991              	.LVL96:
 347:FXObjects/LBFX.h **** 
 1992              		.loc 9 347 3 view .LVU475
 1993 006a 94F85030 		ldrb	r3, [r4, #80]	@ zero_extendqisi2
 1994              	.LVL97:
 347:FXObjects/LBFX.h **** 
 1995              		.loc 9 347 3 is_stmt 1 view .LVU476
 345:FXObjects/LBFX.h **** 
 1996              		.loc 9 345 21 is_stmt 0 view .LVU477
 1997 006e B0EE401B 		vmov.f64	d1, d0
 347:FXObjects/LBFX.h **** 
 1998              		.loc 9 347 3 view .LVU478
 1999 0072 2BB1     		cbz	r3, .L75
 349:FXObjects/LBFX.h **** 	}
ARM GAS  C:\Users\guita\AppData\Local\Temp\ccRE0rrt.s 			page 70


 2000              		.loc 9 349 3 is_stmt 1 view .LVU479
 349:FXObjects/LBFX.h **** 	}
 2001              		.loc 9 349 22 is_stmt 0 view .LVU480
 2002 0074 FFF7FEFF 		bl	log10
 2003              	.LVL98:
 349:FXObjects/LBFX.h **** 	}
 2004              		.loc 9 349 35 view .LVU481
 2005 0078 B3EE041B 		vmov.f64	d1, #2.0e+1
 2006 007c 20EE011B 		vmul.f64	d1, d0, d1
 2007              	.L75:
 2008              	.LVL99:
 349:FXObjects/LBFX.h **** 	}
 2009              		.loc 9 349 35 view .LVU482
 2010              	.LBE648:
 2011              	.LBE653:
 413:FXObjects/LBFX.h **** 
 2012              		.loc 9 413 3 is_stmt 1 view .LVU483
 2013              	.LBB654:
 2014              	.LBI654:
 421:FXObjects/LBFX.h **** 
 422:FXObjects/LBFX.h **** protected:
 423:FXObjects/LBFX.h **** 	LB_CompressorParameters parameters;
 424:FXObjects/LBFX.h **** 	double sampleRate = 44100;
 425:FXObjects/LBFX.h **** 
 426:FXObjects/LBFX.h **** 	LB_EnvDetector detector;
 427:FXObjects/LBFX.h **** 
 428:FXObjects/LBFX.h **** 	inline double computeGain(double detectorLevel_dB) {
 2015              		.loc 9 428 16 view .LVU484
 2016              	.LBB655:
 429:FXObjects/LBFX.h **** 		double output_dB = 0.0;
 2017              		.loc 9 429 3 view .LVU485
 430:FXObjects/LBFX.h **** 
 431:FXObjects/LBFX.h **** 		//problem is: threshold is -6 * 10^66
 432:FXObjects/LBFX.h **** 
 433:FXObjects/LBFX.h **** 		if (detectorLevel_dB <= parameters.threshold_dB)
 2018              		.loc 9 433 3 view .LVU486
 2019              		.loc 9 433 38 is_stmt 0 view .LVU487
 2020 0080 94ED027B 		vldr.64	d7, [r4, #8]
 2021              		.loc 9 433 3 view .LVU488
 2022 0084 B4EEC17B 		vcmpe.f64	d7, d1
 2023 0088 F1EE10FA 		vmrs	APSR_nzcv, FPSCR
 2024 008c 27DA     		bge	.L79
 434:FXObjects/LBFX.h **** 			output_dB = detectorLevel_dB;
 435:FXObjects/LBFX.h **** 		else
 436:FXObjects/LBFX.h **** 			output_dB = parameters.threshold_dB + ((detectorLevel_dB - parameters.threshold_dB) / parameters
 2025              		.loc 9 436 4 is_stmt 1 view .LVU489
 2026              		.loc 9 436 61 is_stmt 0 view .LVU490
 2027 008e 31EE475B 		vsub.f64	d5, d1, d7
 2028              		.loc 9 436 88 view .LVU491
 2029 0092 94ED046B 		vldr.64	d6, [r4, #16]
 2030 0096 85EE060B 		vdiv.f64	d0, d5, d6
 2031              		.loc 9 436 14 view .LVU492
 2032 009a 30EE070B 		vadd.f64	d0, d0, d7
 2033              	.LVL100:
 2034              	.L76:
 437:FXObjects/LBFX.h **** 
 438:FXObjects/LBFX.h **** 		double gainReduction_dB = output_dB - detectorLevel_dB; //negative value if reducing gain
ARM GAS  C:\Users\guita\AppData\Local\Temp\ccRE0rrt.s 			page 71


 2035              		.loc 9 438 3 is_stmt 1 view .LVU493
 439:FXObjects/LBFX.h **** 
 440:FXObjects/LBFX.h **** 		return pow(10.0, gainReduction_dB / 20.0);
 2036              		.loc 9 440 3 view .LVU494
 2037              		.loc 9 440 13 is_stmt 0 view .LVU495
 2038 009e B3EE04AB 		vmov.f64	d10, #2.0e+1
 438:FXObjects/LBFX.h **** 
 2039              		.loc 9 438 10 view .LVU496
 2040 00a2 30EE411B 		vsub.f64	d1, d0, d1
 2041              	.LVL101:
 2042              		.loc 9 440 13 view .LVU497
 2043 00a6 B2EE040B 		vmov.f64	d0, #1.0e+1
 2044              	.LVL102:
 2045              		.loc 9 440 13 view .LVU498
 2046 00aa 81EE0A1B 		vdiv.f64	d1, d1, d10
 2047              	.LVL103:
 2048              		.loc 9 440 13 view .LVU499
 2049 00ae FFF7FEFF 		bl	pow
 2050              	.LVL104:
 2051 00b2 B0EE409B 		vmov.f64	d9, d0
 2052              	.LVL105:
 2053              		.loc 9 440 13 view .LVU500
 2054              	.LBE655:
 2055              	.LBE654:
 416:FXObjects/LBFX.h **** 		return xn * gr * makeupGain;
 2056              		.loc 9 416 3 is_stmt 1 view .LVU501
 416:FXObjects/LBFX.h **** 		return xn * gr * makeupGain;
 2057              		.loc 9 416 26 is_stmt 0 view .LVU502
 2058 00b6 B2EE040B 		vmov.f64	d0, #1.0e+1
 2059              	.LVL106:
 416:FXObjects/LBFX.h **** 		return xn * gr * makeupGain;
 2060              		.loc 9 416 26 view .LVU503
 2061 00ba 94ED0A1B 		vldr.64	d1, [r4, #40]
 2062 00be 81EE0A1B 		vdiv.f64	d1, d1, d10
 2063 00c2 FFF7FEFF 		bl	pow
 2064              	.LVL107:
 417:FXObjects/LBFX.h **** 	}
 2065              		.loc 9 417 3 is_stmt 1 view .LVU504
 417:FXObjects/LBFX.h **** 	}
 2066              		.loc 9 417 13 is_stmt 0 view .LVU505
 2067 00c6 28EE098B 		vmul.f64	d8, d8, d9
 2068              	.LVL108:
 418:FXObjects/LBFX.h **** 
 2069              		.loc 9 418 2 view .LVU506
 2070 00ca 28EE000B 		vmul.f64	d0, d8, d0
 2071              	.LVL109:
 418:FXObjects/LBFX.h **** 
 2072              		.loc 9 418 2 view .LVU507
 2073 00ce BDEC068B 		vldm	sp!, {d8-d10}
 2074              		.cfi_remember_state
 2075              		.cfi_restore 84
 2076              		.cfi_restore 85
 2077              		.cfi_restore 82
 2078              		.cfi_restore 83
 2079              		.cfi_restore 80
 2080              		.cfi_restore 81
 2081              		.cfi_def_cfa_offset 8
ARM GAS  C:\Users\guita\AppData\Local\Temp\ccRE0rrt.s 			page 72


 2082              	.LVL110:
 418:FXObjects/LBFX.h **** 
 2083              		.loc 9 418 2 view .LVU508
 2084 00d2 10BD     		pop	{r4, pc}
 2085              	.LVL111:
 2086              	.L85:
 2087              		.cfi_restore_state
 2088              	.LBB657:
 2089              	.LBB649:
 334:FXObjects/LBFX.h **** 
 2090              		.loc 9 334 4 is_stmt 1 view .LVU509
 334:FXObjects/LBFX.h **** 
 2091              		.loc 9 334 56 is_stmt 0 view .LVU510
 2092 00d4 90ED1A5B 		vldr.64	d5, [r0, #104]
 2093 00d8 A5EE067B 		vfma.f64	d7, d5, d6
 2094              	.LVL112:
 334:FXObjects/LBFX.h **** 
 2095              		.loc 9 334 56 view .LVU511
 2096 00dc A5E7     		b	.L70
 2097              	.LVL113:
 2098              	.L79:
 334:FXObjects/LBFX.h **** 
 2099              		.loc 9 334 56 view .LVU512
 2100              	.LBE649:
 2101              	.LBE657:
 2102              	.LBB658:
 2103              	.LBB656:
 434:FXObjects/LBFX.h **** 		else
 2104              		.loc 9 434 14 view .LVU513
 2105 00de B0EE410B 		vmov.f64	d0, d1
 2106 00e2 DCE7     		b	.L76
 2107              	.LVL114:
 2108              	.L74:
 434:FXObjects/LBFX.h **** 		else
 2109              		.loc 9 434 14 view .LVU514
 2110              	.LBE656:
 2111              	.LBE658:
 2112              	.LBB659:
 2113              	.LBB650:
 2114              	.LBB645:
 2115              	.LBB643:
  34:FXObjects/LBFX.h **** 	{
 2116              		.loc 9 34 23 view .LVU515
 2117 00e4 9FED085B 		vldr.64	d5, .L88+16
 2118 00e8 B4EEC57B 		vcmpe.f64	d7, d5
 2119 00ec F1EE10FA 		vmrs	APSR_nzcv, FPSCR
 2120 00f0 B3DC     		bgt	.L73
 2121 00f2 B0E7     		b	.L87
 2122              	.L89:
 2123 00f4 AFF30080 		.align	3
 2124              	.L88:
 2125 00f8 9B630A00 		.word	680859
 2126 00fc 00001038 		.word	940572672
 2127 0100 00000000 		.word	0
 2128 0104 00000000 		.word	0
 2129 0108 9B630A00 		.word	680859
 2130 010c 000010B8 		.word	-1206910976
ARM GAS  C:\Users\guita\AppData\Local\Temp\ccRE0rrt.s 			page 73


 2131              	.LBE643:
 2132              	.LBE645:
 2133              	.LBE650:
 2134              	.LBE659:
 2135              		.cfi_endproc
 2136              	.LFE2260:
 2138              		.section	.text._ZN8FatPunch18processAudioSampleEd,"axG",%progbits,_ZN8FatPunch18processAudioSample
 2139              		.align	1
 2140              		.p2align 2,,3
 2141              		.weak	_ZN8FatPunch18processAudioSampleEd
 2142              		.syntax unified
 2143              		.thumb
 2144              		.thumb_func
 2145              		.fpu fpv5-d16
 2147              	_ZN8FatPunch18processAudioSampleEd:
 2148              	.LVL115:
 2149              	.LFB4535:
  61:FXObjects/BassPedalFX.h **** 		// Step 1 - Distortion
 2150              		.loc 11 61 17 is_stmt 1 view -0
 2151              		.cfi_startproc
 2152              		@ args = 0, pretend = 0, frame = 0
 2153              		@ frame_needed = 0, uses_anonymous_args = 0
  63:FXObjects/BassPedalFX.h **** 			xn = tanhWaveShaper(xn, parameters.inDistAmt); //distAmt goes 0.01-10
 2154              		.loc 11 63 3 view .LVU517
 2155 0000 437A     		ldrb	r3, [r0, #9]	@ zero_extendqisi2
  61:FXObjects/BassPedalFX.h **** 		// Step 1 - Distortion
 2156              		.loc 11 61 17 is_stmt 0 view .LVU518
 2157 0002 10B5     		push	{r4, lr}
 2158              		.cfi_def_cfa_offset 8
 2159              		.cfi_offset 4, -8
 2160              		.cfi_offset 14, -4
 2161 0004 0446     		mov	r4, r0
 2162 0006 2DED068B 		vpush.64	{d8, d9, d10}
 2163              		.cfi_def_cfa_offset 32
 2164              		.cfi_offset 80, -32
 2165              		.cfi_offset 81, -28
 2166              		.cfi_offset 82, -24
 2167              		.cfi_offset 83, -20
 2168              		.cfi_offset 84, -16
 2169              		.cfi_offset 85, -12
  61:FXObjects/BassPedalFX.h **** 		// Step 1 - Distortion
 2170              		.loc 11 61 17 view .LVU519
 2171 000a B0EE408B 		vmov.f64	d8, d0
  63:FXObjects/BassPedalFX.h **** 			xn = tanhWaveShaper(xn, parameters.inDistAmt); //distAmt goes 0.01-10
 2172              		.loc 11 63 3 view .LVU520
 2173 000e CBB3     		cbz	r3, .L91
  64:FXObjects/BassPedalFX.h **** 		// Step 2 - EQ
 2174              		.loc 11 64 4 is_stmt 1 view .LVU521
  64:FXObjects/BassPedalFX.h **** 		// Step 2 - EQ
 2175              		.loc 11 64 23 is_stmt 0 view .LVU522
 2176 0010 90ED019A 		vldr.32	s18, [r0, #4]
 2177 0014 B7EEC99A 		vcvt.f64.f32	d9, s18
 2178              	.LVL116:
 2179              	.LBB678:
 2180              	.LBI678:
 441:FXObjects/LBFX.h **** 	}
 442:FXObjects/LBFX.h **** };
ARM GAS  C:\Users\guita\AppData\Local\Temp\ccRE0rrt.s 			page 74


 443:FXObjects/LBFX.h **** 
 444:FXObjects/LBFX.h **** 
 445:FXObjects/LBFX.h **** 
 446:FXObjects/LBFX.h **** /**
 447:FXObjects/LBFX.h **** @tanhWaveShaper
 448:FXObjects/LBFX.h **** \ingroup FX-Functions
 449:FXObjects/LBFX.h **** 
 450:FXObjects/LBFX.h **** @brief calculates hyptan waveshaper
 451:FXObjects/LBFX.h **** \param xn - the input value
 452:FXObjects/LBFX.h **** \param saturation  - the saturation control
 453:FXObjects/LBFX.h **** \return the waveshaped output value
 454:FXObjects/LBFX.h **** */
 455:FXObjects/LBFX.h **** inline double tanhWaveShaper(double xn, double saturation)
 2181              		.loc 9 455 15 is_stmt 1 view .LVU523
 2182              	.LBB679:
 456:FXObjects/LBFX.h **** {
 457:FXObjects/LBFX.h **** 	return tanh(saturation*xn) / tanh(saturation);
 2183              		.loc 9 457 2 view .LVU524
 2184              		.loc 9 457 13 is_stmt 0 view .LVU525
 2185 0018 29EE000B 		vmul.f64	d0, d9, d0
 2186              	.LVL117:
 2187              		.loc 9 457 13 view .LVU526
 2188 001c FFF7FEFF 		bl	tanh
 2189              	.LVL118:
 2190              		.loc 9 457 13 view .LVU527
 2191 0020 B0EE408B 		vmov.f64	d8, d0
 2192              	.LVL119:
 2193              		.loc 9 457 35 view .LVU528
 2194 0024 B0EE490B 		vmov.f64	d0, d9
 2195 0028 FFF7FEFF 		bl	tanh
 2196              	.LVL120:
 2197              		.loc 9 457 35 view .LVU529
 2198              	.LBE679:
 2199              	.LBE678:
  66:FXObjects/BassPedalFX.h **** 			xn *= dB2Raw(-6.0);
 2200              		.loc 11 66 3 is_stmt 1 view .LVU530
  67:FXObjects/BassPedalFX.h **** 			xn = lpeq.processAudioSample(xn);
 2201              		.loc 11 67 4 view .LVU531
 2202              		.file 13 "FXObjects/../BassPedalFunctions.h"
   1:FXObjects/../BassPedalFunctions.h **** #include "daisy_seed.h"
   2:FXObjects/../BassPedalFunctions.h **** using namespace daisy;
   3:FXObjects/../BassPedalFunctions.h **** 
   4:FXObjects/../BassPedalFunctions.h **** Color getLEDColor(float _inputLevel) {
   5:FXObjects/../BassPedalFunctions.h ****     // Takes in input level in dB, gives color for LED
   6:FXObjects/../BassPedalFunctions.h ****     Color c;
   7:FXObjects/../BassPedalFunctions.h ****     float rVal, gVal, bVal = 0.0;
   8:FXObjects/../BassPedalFunctions.h **** 
   9:FXObjects/../BassPedalFunctions.h ****     // if (_inputLevel < -43) {
  10:FXObjects/../BassPedalFunctions.h ****     //     rVal = gVal = 0.0;
  11:FXObjects/../BassPedalFunctions.h ****     // } else if (_inputLevel < -37) {
  12:FXObjects/../BassPedalFunctions.h ****     //     rVal = 0.0;
  13:FXObjects/../BassPedalFunctions.h ****     //     gVal = _inputLevel * 0.133333333 + 5.73333333;
  14:FXObjects/../BassPedalFunctions.h ****     // } else if (_inputLevel < -28) {
  15:FXObjects/../BassPedalFunctions.h ****     //     rVal = 0.0;
  16:FXObjects/../BassPedalFunctions.h ****     //     gVal = 0.8;
  17:FXObjects/../BassPedalFunctions.h ****     // } else if (_inputLevel < -22) {
  18:FXObjects/../BassPedalFunctions.h ****     //     rVal = _inputLevel / 6.0 + 7.1666666;
ARM GAS  C:\Users\guita\AppData\Local\Temp\ccRE0rrt.s 			page 75


  19:FXObjects/../BassPedalFunctions.h ****     //     //gVal = _inputLevel / -30.0 + 0.0666666666;
  20:FXObjects/../BassPedalFunctions.h ****     //     gVal = 0.8;
  21:FXObjects/../BassPedalFunctions.h ****     // } else if (_inputLevel < -8) {
  22:FXObjects/../BassPedalFunctions.h ****     //     rVal = 1.0;
  23:FXObjects/../BassPedalFunctions.h ****     //     gVal = 0.8;
  24:FXObjects/../BassPedalFunctions.h ****     // } else if (_inputLevel < -2) {
  25:FXObjects/../BassPedalFunctions.h ****     //     rVal = 1.0;
  26:FXObjects/../BassPedalFunctions.h ****     //     gVal = _inputLevel * -0.133333333 - 0.266666666;
  27:FXObjects/../BassPedalFunctions.h ****     // } else {
  28:FXObjects/../BassPedalFunctions.h ****     //     rVal = 1.0;
  29:FXObjects/../BassPedalFunctions.h ****     //     gVal = 0.0;
  30:FXObjects/../BassPedalFunctions.h ****     // }
  31:FXObjects/../BassPedalFunctions.h **** 
  32:FXObjects/../BassPedalFunctions.h ****     
  33:FXObjects/../BassPedalFunctions.h ****     //new ideal range: -10 to -5
  34:FXObjects/../BassPedalFunctions.h **** 
  35:FXObjects/../BassPedalFunctions.h ****     float b = 0.5;
  36:FXObjects/../BassPedalFunctions.h **** 
  37:FXObjects/../BassPedalFunctions.h ****     rVal = gVal = bVal = 0.0;
  38:FXObjects/../BassPedalFunctions.h ****     if (_inputLevel > -40 && _inputLevel < -25) {
  39:FXObjects/../BassPedalFunctions.h ****         //ideal
  40:FXObjects/../BassPedalFunctions.h ****         gVal = b;
  41:FXObjects/../BassPedalFunctions.h ****     } else if (_inputLevel > -25) {
  42:FXObjects/../BassPedalFunctions.h ****         rVal = b;
  43:FXObjects/../BassPedalFunctions.h ****     } else {
  44:FXObjects/../BassPedalFunctions.h ****         bVal = b;
  45:FXObjects/../BassPedalFunctions.h ****     }
  46:FXObjects/../BassPedalFunctions.h **** 
  47:FXObjects/../BassPedalFunctions.h ****     c.Init(rVal, gVal, bVal);
  48:FXObjects/../BassPedalFunctions.h ****     return c;
  49:FXObjects/../BassPedalFunctions.h **** }
  50:FXObjects/../BassPedalFunctions.h **** 
  51:FXObjects/../BassPedalFunctions.h **** inline double dB2Raw(double x) {
  52:FXObjects/../BassPedalFunctions.h ****     return pow(10.0, x / 20.0);
 2203              		.loc 13 52 5 view .LVU532
 2204              	.LBB681:
 2205              	.LBB680:
 2206              		.loc 9 457 46 is_stmt 0 view .LVU533
 2207 002c 88EE002B 		vdiv.f64	d2, d8, d0
 2208              	.LVL121:
 2209              		.loc 9 457 46 view .LVU534
 2210              	.LBE680:
 2211              	.LBE681:
  67:FXObjects/BassPedalFX.h **** 			xn = lpeq.processAudioSample(xn);
 2212              		.loc 11 67 7 view .LVU535
 2213 0030 9FED6B8B 		vldr.64	d8, .L127
 2214              	.LBB682:
 2215              	.LBB683:
 2216              	.LBB684:
 2217              	.LBB685:
   5:FXObjects/LBFX.cpp **** 		- coeffArray[b2] * stateArray[x_z2];
 2218              		.loc 10 5 51 view .LVU536
 2219 0034 94ED149B 		vldr.64	d9, [r4, #80]
   5:FXObjects/LBFX.cpp **** 		- coeffArray[b2] * stateArray[x_z2];
 2220              		.loc 10 5 17 view .LVU537
 2221 0038 94ED0C4B 		vldr.64	d4, [r4, #48]
   6:FXObjects/LBFX.cpp **** 	
ARM GAS  C:\Users\guita\AppData\Local\Temp\ccRE0rrt.s 			page 76


 2222              		.loc 10 6 37 view .LVU538
 2223 003c 94ED161B 		vldr.64	d1, [r4, #88]
   5:FXObjects/LBFX.cpp **** 		- coeffArray[b2] * stateArray[x_z2];
 2224              		.loc 10 5 9 view .LVU539
 2225 0040 94ED0E5B 		vldr.64	d5, [r4, #56]
   9:FXObjects/LBFX.cpp **** 		+ coeffArray[a2] * stateArray[x_z2];
 2226              		.loc 10 9 20 view .LVU540
 2227 0044 94ED087B 		vldr.64	d7, [r4, #32]
   9:FXObjects/LBFX.cpp **** 		+ coeffArray[a2] * stateArray[x_z2];
 2228              		.loc 10 9 3 view .LVU541
 2229 0048 94ED066B 		vldr.64	d6, [r4, #24]
 2230              	.LBE685:
 2231              	.LBE684:
 2232              		.loc 10 55 44 view .LVU542
 2233 004c 94ED260B 		vldr.64	d0, [r4, #152]
 2234              	.LBB689:
 2235              	.LBB686:
   9:FXObjects/LBFX.cpp **** 		+ coeffArray[a2] * stateArray[x_z2];
 2236              		.loc 10 9 20 view .LVU543
 2237 0050 29EE077B 		vmul.f64	d7, d9, d7
 2238              	.LBE686:
 2239              	.LBE689:
 2240              		.loc 10 55 22 view .LVU544
 2241 0054 94ED283B 		vldr.64	d3, [r4, #160]
 2242              	.LBB690:
 2243              	.LBB687:
  16:FXObjects/LBFX.cpp **** 	stateArray[x_z1] = wn;
 2244              		.loc 10 16 19 view .LVU545
 2245 0058 84ED169B 		vstr.64	d9, [r4, #88]
 2246              	.LBE687:
 2247              	.LBE690:
 2248              	.LBE683:
 2249              	.LBE682:
  67:FXObjects/BassPedalFX.h **** 			xn = lpeq.processAudioSample(xn);
 2250              		.loc 11 67 7 view .LVU546
 2251 005c 22EE082B 		vmul.f64	d2, d2, d8
 2252              	.LVL122:
  68:FXObjects/BassPedalFX.h **** 		
 2253              		.loc 11 68 4 is_stmt 1 view .LVU547
 2254              	.LBB693:
 2255              	.LBI682:
  54:FXObjects/LBFX.cpp **** 	return coeffArray[d0] * xn + coeffArray[c0] * biquad.processAudioSample(xn);
 2256              		.loc 10 54 8 view .LVU548
 2257              	.LBB692:
 2258              		.loc 10 55 2 view .LVU549
 2259              	.LBB691:
 2260              	.LBI684:
   3:FXObjects/LBFX.cpp **** 	// Canonical form difference eqn
 2261              		.loc 10 3 8 view .LVU550
 2262              	.LBB688:
   5:FXObjects/LBFX.cpp **** 		- coeffArray[b2] * stateArray[x_z2];
 2263              		.loc 10 5 2 view .LVU551
   5:FXObjects/LBFX.cpp **** 		- coeffArray[b2] * stateArray[x_z2];
 2264              		.loc 10 5 17 is_stmt 0 view .LVU552
 2265 0060 B0EE428B 		vmov.f64	d8, d2
 2266 0064 A4EE498B 		vfms.f64	d8, d4, d9
